	.section	__TEXT,__text,regular,pure_instructions
	.build_version macos, 12, 0	sdk_version 12, 3
	.file	1 "/Applications/Xcode.app/Contents/Developer/Platforms/MacOSX.platform/Developer/SDKs/MacOSX12.3.sdk/usr/include/_types" "_uint64_t.h"
	.file	2 "/usr/local/include/pcapplusplus" "ProtocolType.h"
	.file	3 "/usr/local/include/pcapplusplus" "RawPacket.h"
	.file	4 "/Applications/Xcode.app/Contents/Developer/Platforms/MacOSX.platform/Developer/SDKs/MacOSX12.3.sdk/usr/include/_types" "_uint8_t.h"
	.file	5 "/usr/local/include/pcapplusplus" "IpAddress.h"
	.file	6 "/Applications/Xcode.app/Contents/Developer/Platforms/MacOSX.platform/Developer/SDKs/MacOSX12.3.sdk/usr/include/_types" "_uint32_t.h"
	.file	7 "/Applications/Xcode.app/Contents/Developer/Platforms/MacOSX.platform/Developer/SDKs/MacOSX12.3.sdk/usr/include/c++/v1" "__string"
	.file	8 "/Applications/Xcode.app/Contents/Developer/Platforms/MacOSX.platform/Developer/SDKs/MacOSX12.3.sdk/usr/include/i386" "_types.h"
	.file	9 "/Applications/Xcode.app/Contents/Developer/Platforms/MacOSX.platform/Developer/SDKs/MacOSX12.3.sdk/usr/include/sys/_types" "_size_t.h"
	.file	10 "/Applications/Xcode.app/Contents/Developer/Platforms/MacOSX.platform/Developer/SDKs/MacOSX12.3.sdk/usr/include/c++/v1/__memory" "allocator.h"
	.file	11 "/Applications/Xcode.app/Contents/Developer/Platforms/MacOSX.platform/Developer/SDKs/MacOSX12.3.sdk/usr/include/c++/v1" "string"
	.file	12 "/Applications/Xcode.app/Contents/Developer/Platforms/MacOSX.platform/Developer/SDKs/MacOSX12.3.sdk/usr/include/c++/v1/__memory" "allocator_traits.h"
	.file	13 "/Applications/Xcode.app/Contents/Developer/Platforms/MacOSX.platform/Developer/SDKs/MacOSX12.3.sdk/usr/include/c++/v1/__memory" "compressed_pair.h"
	.file	14 "/Applications/Xcode.app/Contents/Developer/Platforms/MacOSX.platform/Developer/SDKs/MacOSX12.3.sdk/usr/include/c++/v1" "initializer_list"
	.file	15 "/Applications/Xcode.app/Contents/Developer/Platforms/MacOSX.platform/Developer/SDKs/MacOSX12.3.sdk/usr/include/c++/v1" "string_view"
	.file	16 "/Applications/Xcode.app/Contents/Developer/Platforms/MacOSX.platform/Developer/SDKs/MacOSX12.3.sdk/usr/include/c++/v1/__iterator" "wrap_iter.h"
	.file	17 "/Applications/Xcode.app/Contents/Developer/Platforms/MacOSX.platform/Developer/SDKs/MacOSX12.3.sdk/usr/include/c++/v1/__iterator" "iterator_traits.h"
	.file	18 "/Applications/Xcode.app/Contents/Developer/Toolchains/XcodeDefault.xctoolchain/usr/lib/clang/13.1.6/include" "stddef.h"
	.file	19 "/Applications/Xcode.app/Contents/Developer/Platforms/MacOSX.platform/Developer/SDKs/MacOSX12.3.sdk/usr/include/c++/v1/__memory" "pointer_traits.h"
	.file	20 "/Applications/Xcode.app/Contents/Developer/Platforms/MacOSX.platform/Developer/SDKs/MacOSX12.3.sdk/usr/include/c++/v1" "type_traits"
	.file	21 "/Applications/Xcode.app/Contents/Developer/Platforms/MacOSX.platform/Developer/SDKs/MacOSX12.3.sdk/usr/include/c++/v1" "iosfwd"
	.file	22 "/usr/local/include/pcapplusplus" "IPv4Layer.h"
	.file	23 "/Applications/Xcode.app/Contents/Developer/Platforms/MacOSX.platform/Developer/SDKs/MacOSX12.3.sdk/usr/include/c++/v1" "vector"
	.file	24 "/Applications/Xcode.app/Contents/Developer/Platforms/MacOSX.platform/Developer/SDKs/MacOSX12.3.sdk/usr/include/c++/v1" "__split_buffer"
	.file	25 "/usr/local/include/fmt" "core.h"
	.file	26 "/Applications/Xcode.app/Contents/Developer/Platforms/MacOSX.platform/Developer/SDKs/MacOSX12.3.sdk/usr/include/c++/v1" "cstddef"
	.file	27 "/Applications/Xcode.app/Contents/Developer/Platforms/MacOSX.platform/Developer/SDKs/MacOSX12.3.sdk/usr/include/_types" "_uint16_t.h"
	.file	28 "/usr/local/include/pcapplusplus" "Layer.h"
	.file	29 "/Applications/Xcode.app/Contents/Developer/Platforms/MacOSX.platform/Developer/SDKs/MacOSX12.3.sdk/usr/include/sys/_types" "_timespec.h"
	.file	30 "/Applications/Xcode.app/Contents/Developer/Platforms/MacOSX.platform/Developer/SDKs/MacOSX12.3.sdk/usr/include/sys/_types" "_timeval.h"
	.file	31 "/Applications/Xcode.app/Contents/Developer/Platforms/MacOSX.platform/Developer/SDKs/MacOSX12.3.sdk/usr/include/sys" "_types.h"
	.file	32 "/usr/local/include/pcapplusplus" "Packet.h"
	.file	33 "/usr/local/include/pcapplusplus" "IPLayer.h"
	.file	34 "/usr/local/include/pcapplusplus" "TLVData.h"
	.file	35 "/Applications/Xcode.app/Contents/Developer/Platforms/MacOSX.platform/Developer/SDKs/MacOSX12.3.sdk/usr/include/c++/v1/__iterator" "iterator.h"
	.file	36 "/Applications/Xcode.app/Contents/Developer/Platforms/MacOSX.platform/Developer/SDKs/MacOSX12.3.sdk/usr/include/c++/v1/__iterator" "back_insert_iterator.h"
	.file	37 "/Applications/Xcode.app/Contents/Developer/Platforms/MacOSX.platform/Developer/SDKs/MacOSX12.3.sdk/usr/include/c++/v1" "__nullptr"
	.file	38 "/Applications/Xcode.app/Contents/Developer/Platforms/MacOSX.platform/Developer/SDKs/MacOSX12.3.sdk/usr/include/c++/v1" "stddef.h"
	.file	39 "/Applications/Xcode.app/Contents/Developer/Platforms/MacOSX.platform/Developer/SDKs/MacOSX12.3.sdk/usr/include/sys/_types" "_mbstate_t.h"
	.file	40 "/Applications/Xcode.app/Contents/Developer/Platforms/MacOSX.platform/Developer/SDKs/MacOSX12.3.sdk/usr/include/c++/v1" "__mbstate_t.h"
	.file	41 "/Applications/Xcode.app/Contents/Developer/Toolchains/XcodeDefault.xctoolchain/usr/lib/clang/13.1.6/include" "__stddef_max_align_t.h"
	.file	42 "/Applications/Xcode.app/Contents/Developer/Platforms/MacOSX.platform/Developer/SDKs/MacOSX12.3.sdk/usr/include/c++/v1" "cstdlib"
	.file	43 "/Applications/Xcode.app/Contents/Developer/Platforms/MacOSX.platform/Developer/SDKs/MacOSX12.3.sdk/usr/include" "stdlib.h"
	.file	44 "/Applications/Xcode.app/Contents/Developer/Platforms/MacOSX.platform/Developer/SDKs/MacOSX12.3.sdk/usr/include/malloc" "_malloc.h"
	.file	45 "/Applications/Xcode.app/Contents/Developer/Platforms/MacOSX.platform/Developer/SDKs/MacOSX12.3.sdk/usr/include/c++/v1" "stdlib.h"
	.file	46 "/Applications/Xcode.app/Contents/Developer/Platforms/MacOSX.platform/Developer/SDKs/MacOSX12.3.sdk/usr/include/sys/_types" "_int8_t.h"
	.file	47 "/Applications/Xcode.app/Contents/Developer/Platforms/MacOSX.platform/Developer/SDKs/MacOSX12.3.sdk/usr/include/c++/v1" "cstdint"
	.file	48 "/Applications/Xcode.app/Contents/Developer/Platforms/MacOSX.platform/Developer/SDKs/MacOSX12.3.sdk/usr/include/sys/_types" "_int16_t.h"
	.file	49 "/Applications/Xcode.app/Contents/Developer/Platforms/MacOSX.platform/Developer/SDKs/MacOSX12.3.sdk/usr/include/sys/_types" "_int32_t.h"
	.file	50 "/Applications/Xcode.app/Contents/Developer/Platforms/MacOSX.platform/Developer/SDKs/MacOSX12.3.sdk/usr/include/sys/_types" "_int64_t.h"
	.file	51 "/Applications/Xcode.app/Contents/Developer/Platforms/MacOSX.platform/Developer/SDKs/MacOSX12.3.sdk/usr/include" "stdint.h"
	.file	52 "/Applications/Xcode.app/Contents/Developer/Platforms/MacOSX.platform/Developer/SDKs/MacOSX12.3.sdk/usr/include/sys/_types" "_intptr_t.h"
	.file	53 "/Applications/Xcode.app/Contents/Developer/Platforms/MacOSX.platform/Developer/SDKs/MacOSX12.3.sdk/usr/include/sys/_types" "_uintptr_t.h"
	.file	54 "/Applications/Xcode.app/Contents/Developer/Platforms/MacOSX.platform/Developer/SDKs/MacOSX12.3.sdk/usr/include/_types" "_intmax_t.h"
	.file	55 "/Applications/Xcode.app/Contents/Developer/Platforms/MacOSX.platform/Developer/SDKs/MacOSX12.3.sdk/usr/include/_types" "_uintmax_t.h"
	.file	56 "/Applications/Xcode.app/Contents/Developer/Platforms/MacOSX.platform/Developer/SDKs/MacOSX12.3.sdk/usr/include/c++/v1" "cstring"
	.file	57 "/Applications/Xcode.app/Contents/Developer/Platforms/MacOSX.platform/Developer/SDKs/MacOSX12.3.sdk/usr/include" "string.h"
	.file	58 "/Applications/Xcode.app/Contents/Developer/Platforms/MacOSX.platform/Developer/SDKs/MacOSX12.3.sdk/usr/include/c++/v1" "string.h"
	.file	59 "/Applications/Xcode.app/Contents/Developer/Platforms/MacOSX.platform/Developer/SDKs/MacOSX12.3.sdk/usr/include/sys/_types" "_clock_t.h"
	.file	60 "/Applications/Xcode.app/Contents/Developer/Platforms/MacOSX.platform/Developer/SDKs/MacOSX12.3.sdk/usr/include/c++/v1" "ctime"
	.file	61 "/Applications/Xcode.app/Contents/Developer/Platforms/MacOSX.platform/Developer/SDKs/MacOSX12.3.sdk/usr/include/sys/_types" "_time_t.h"
	.file	62 "/Applications/Xcode.app/Contents/Developer/Platforms/MacOSX.platform/Developer/SDKs/MacOSX12.3.sdk/usr/include" "time.h"
	.file	63 "/Applications/Xcode.app/Contents/Developer/Platforms/MacOSX.platform/Developer/SDKs/MacOSX12.3.sdk/usr/include/c++/v1" "chrono"
	.file	64 "/Applications/Xcode.app/Contents/Developer/Platforms/MacOSX.platform/Developer/SDKs/MacOSX12.3.sdk/usr/include" "_stdio.h"
	.file	65 "/Applications/Xcode.app/Contents/Developer/Platforms/MacOSX.platform/Developer/SDKs/MacOSX12.3.sdk/usr/include/c++/v1" "cstdio"
	.file	66 "/Applications/Xcode.app/Contents/Developer/Platforms/MacOSX.platform/Developer/SDKs/MacOSX12.3.sdk/usr/include" "stdio.h"
	.file	67 "/Applications/Xcode.app/Contents/Developer/Platforms/MacOSX.platform/Developer/SDKs/MacOSX12.3.sdk/usr/include" "_ctype.h"
	.file	68 "/Applications/Xcode.app/Contents/Developer/Platforms/MacOSX.platform/Developer/SDKs/MacOSX12.3.sdk/usr/include/c++/v1" "cctype"
	.file	69 "/Applications/Xcode.app/Contents/Developer/Platforms/MacOSX.platform/Developer/SDKs/MacOSX12.3.sdk/usr/include/sys/_types" "_wint_t.h"
	.file	70 "/Applications/Xcode.app/Contents/Developer/Platforms/MacOSX.platform/Developer/SDKs/MacOSX12.3.sdk/usr/include/c++/v1" "cwctype"
	.file	71 "/Applications/Xcode.app/Contents/Developer/Platforms/MacOSX.platform/Developer/SDKs/MacOSX12.3.sdk/usr/include" "_types.h"
	.file	72 "/Applications/Xcode.app/Contents/Developer/Platforms/MacOSX.platform/Developer/SDKs/MacOSX12.3.sdk/usr/include/_types" "_wctrans_t.h"
	.file	73 "/Applications/Xcode.app/Contents/Developer/Platforms/MacOSX.platform/Developer/SDKs/MacOSX12.3.sdk/usr/include/_types" "_wctype_t.h"
	.file	74 "/Applications/Xcode.app/Contents/Developer/Platforms/MacOSX.platform/Developer/SDKs/MacOSX12.3.sdk/usr/include" "_wctype.h"
	.file	75 "/Applications/Xcode.app/Contents/Developer/Platforms/MacOSX.platform/Developer/SDKs/MacOSX12.3.sdk/usr/include" "wctype.h"
	.file	76 "/Applications/Xcode.app/Contents/Developer/Platforms/MacOSX.platform/Developer/SDKs/MacOSX12.3.sdk/usr/include/c++/v1" "cwchar"
	.file	77 "/Applications/Xcode.app/Contents/Developer/Platforms/MacOSX.platform/Developer/SDKs/MacOSX12.3.sdk/usr/include" "wchar.h"
	.file	78 "/Applications/Xcode.app/Contents/Developer/Platforms/MacOSX.platform/Developer/SDKs/MacOSX12.3.sdk/usr/include/c++/v1" "wchar.h"
	.file	79 "/Applications/Xcode.app/Contents/Developer/Platforms/MacOSX.platform/Developer/SDKs/MacOSX12.3.sdk/usr/include/c++/v1" "math.h"
	.file	80 "/Applications/Xcode.app/Contents/Developer/Platforms/MacOSX.platform/Developer/SDKs/MacOSX12.3.sdk/usr/include/c++/v1" "cmath"
	.file	81 "/Applications/Xcode.app/Contents/Developer/Platforms/MacOSX.platform/Developer/SDKs/MacOSX12.3.sdk/usr/include" "math.h"
	.globl	__Z6parserN4pcpp6PacketE        ## -- Begin function _Z6parserN4pcpp6PacketE
	.p2align	4, 0x90
__Z6parserN4pcpp6PacketE:               ## @_Z6parserN4pcpp6PacketE
Lfunc_begin0:
	.file	82 "/Users/scottroberts/CLionProjects/macpcap" "SRC/Protocols/parser.cpp"
	.loc	82 6 0                          ## SRC/Protocols/parser.cpp:6:0
	.cfi_startproc
	.cfi_personality 155, ___gxx_personality_v0
	.cfi_lsda 16, Lexception0
## %bb.0:
	pushq	%rbp
	.cfi_def_cfa_offset 16
	.cfi_offset %rbp, -16
	movq	%rsp, %rbp
	.cfi_def_cfa_register %rbp
	subq	$400, %rsp                      ## imm = 0x190
	movq	%rdi, -384(%rbp)                ## 8-byte Spill
Ltmp8:
	##DEBUG_VALUE: parser:pkt <- [DW_OP_constu 384, DW_OP_minus, DW_OP_deref] [$rbp+0]
	##DEBUG_VALUE: parser:pkt <- [$rdi+0]
	.loc	82 7 13 prologue_end            ## SRC/Protocols/parser.cpp:7:13
	movl	$2, %esi
	callq	__ZNK4pcpp6Packet14isPacketOfTypeEy
Ltmp9:
	.loc	82 7 9 is_stmt 0                ## SRC/Protocols/parser.cpp:7:9
	testb	$1, %al
Ltmp10:
	##DEBUG_VALUE: parser:pkt <- [DW_OP_constu 384, DW_OP_minus, DW_OP_deref] [$rbp+0]
	jne	LBB0_1
	jmp	LBB0_9
Ltmp11:
LBB0_1:
	##DEBUG_VALUE: parser:pkt <- [DW_OP_constu 384, DW_OP_minus, DW_OP_deref] [$rbp+0]
	.loc	82 0 9                          ## SRC/Protocols/parser.cpp:0:9
	movq	-384(%rbp), %rdi                ## 8-byte Reload
	xorl	%esi, %esi
	movl	%esi, -396(%rbp)                ## 4-byte Spill
Ltmp12:
	.loc	82 10 21 is_stmt 1              ## SRC/Protocols/parser.cpp:10:21
	callq	__ZNK4pcpp6Packet14getLayerOfTypeINS_9IPv4LayerEEEPT_b
	movq	%rax, %rdi
	.loc	82 10 56 is_stmt 0              ## SRC/Protocols/parser.cpp:10:56
	callq	__ZNK4pcpp9IPv4Layer17getSrcIPv4AddressEv
	movq	-384(%rbp), %rdi                ## 8-byte Reload
	movl	-396(%rbp), %esi                ## 4-byte Reload
	movl	%eax, -288(%rbp)
	.loc	82 13 21 is_stmt 1              ## SRC/Protocols/parser.cpp:13:21
	callq	__ZNK4pcpp6Packet14getLayerOfTypeINS_9IPv4LayerEEEPT_b
	movq	%rax, %rdi
	.loc	82 13 56 is_stmt 0              ## SRC/Protocols/parser.cpp:13:56
	callq	__ZNK4pcpp9IPv4Layer17getDstIPv4AddressEv
	movl	%eax, -296(%rbp)
	leaq	-312(%rbp), %rax
	movq	%rax, -272(%rbp)
	leaq	L_.str(%rip), %rax
	movq	%rax, -280(%rbp)
	movq	-272(%rbp), %rcx
Ltmp13:
	.loc	25 3058 97 is_stmt 1            ## /usr/local/include/fmt/core.h:3058:97
	movq	-280(%rbp), %rax
	movq	%rcx, -256(%rbp)
	movq	%rax, -264(%rbp)
	movq	-256(%rbp), %rcx
Ltmp14:
	.loc	25 3058 94 is_stmt 0            ## /usr/local/include/fmt/core.h:3058:94
	movq	-264(%rbp), %rax
	movq	%rcx, -240(%rbp)
	movq	%rax, -248(%rbp)
	movq	-240(%rbp), %rcx
Ltmp15:
	.loc	25 477 56 is_stmt 1             ## /usr/local/include/fmt/core.h:477:56
	movq	-248(%rbp), %rax
	movq	%rcx, -224(%rbp)
	movq	%rax, -232(%rbp)
	movq	-224(%rbp), %rax
	movq	%rax, -392(%rbp)                ## 8-byte Spill
Ltmp16:
	.loc	25 473 15                       ## /usr/local/include/fmt/core.h:473:15
	movq	-232(%rbp), %rcx
	.loc	25 473 9 is_stmt 0              ## /usr/local/include/fmt/core.h:473:9
	movq	%rcx, (%rax)
	.loc	25 476 63 is_stmt 1             ## /usr/local/include/fmt/core.h:476:63
	movq	-232(%rbp), %rdi
	.loc	25 476 21 is_stmt 0             ## /usr/local/include/fmt/core.h:476:21
	callq	_strlen
	movq	%rax, %rcx
	movq	-392(%rbp), %rax                ## 8-byte Reload
	.loc	25 474 9 is_stmt 1              ## /usr/local/include/fmt/core.h:474:9
	movq	%rcx, 8(%rax)
Ltmp17:
	.loc	25 3072 42                      ## /usr/local/include/fmt/core.h:3072:42
	movq	-264(%rbp), %rax
	movq	%rax, -216(%rbp)
	leaq	-336(%rbp), %rdi
	leaq	-288(%rbp), %rsi
Ltmp18:
	.loc	82 17 42                        ## SRC/Protocols/parser.cpp:17:42
	callq	__ZNK4pcpp11IPv4Address8toStringEv
Ltmp0:
	leaq	-360(%rbp), %rdi
	leaq	-296(%rbp), %rsi
	.loc	82 17 61 is_stmt 0              ## SRC/Protocols/parser.cpp:17:61
	callq	__ZNK4pcpp11IPv4Address8toStringEv
Ltmp1:
	jmp	LBB0_2
Ltmp19:
LBB0_2:
	##DEBUG_VALUE: parser:pkt <- [DW_OP_constu 384, DW_OP_minus, DW_OP_deref] [$rbp+0]
	.loc	82 17 9                         ## SRC/Protocols/parser.cpp:17:9
	movq	-312(%rbp), %rcx
	movq	-304(%rbp), %rax
	movq	%rcx, -120(%rbp)
	movq	%rax, -112(%rbp)
	leaq	-336(%rbp), %rax
	movq	%rax, -128(%rbp)
	leaq	-360(%rbp), %rax
	movq	%rax, -136(%rbp)
Ltmp20:
	.loc	25 3208 45 is_stmt 1            ## /usr/local/include/fmt/core.h:3208:45
	movq	-128(%rbp), %rsi
	movq	-136(%rbp), %rdx
Ltmp3:
	leaq	-176(%rbp), %rdi
	.loc	25 3208 23 is_stmt 0            ## /usr/local/include/fmt/core.h:3208:23
	callq	__ZN3fmt2v816make_format_argsINS0_20basic_format_contextINS0_8appenderEcEEJRNSt3__112basic_stringIcNS5_11char_traitsIcEENS5_9allocatorIcEEEESC_EEENS0_16format_arg_storeIT_JDpNS5_9remove_cvINS5_16remove_referenceIT0_E4typeEE4typeEEEEDpOSH_
Ltmp4:
	jmp	LBB0_3
Ltmp21:
LBB0_3:                                 ## %.noexc
	##DEBUG_VALUE: parser:pkt <- [DW_OP_constu 384, DW_OP_minus, DW_OP_deref] [$rbp+0]
	.loc	25 0 23                         ## /usr/local/include/fmt/core.h:0:23
	leaq	-176(%rbp), %rax
	.loc	25 3208 15                      ## /usr/local/include/fmt/core.h:3208:15
	movq	%rax, -144(%rbp)
	leaq	-120(%rbp), %rax
	movq	%rax, -104(%rbp)
	movq	-104(%rbp), %rax
Ltmp22:
	.loc	25 3077 91 is_stmt 1            ## /usr/local/include/fmt/core.h:3077:91
	movups	(%rax), %xmm0
	movaps	%xmm0, -96(%rbp)
	.loc	25 3077 84 is_stmt 0            ## /usr/local/include/fmt/core.h:3077:84
	movq	-96(%rbp), %rcx
	movq	-88(%rbp), %rax
Ltmp23:
	.loc	25 3209 37 is_stmt 1            ## /usr/local/include/fmt/core.h:3209:37
	movq	%rcx, -192(%rbp)
	movq	%rax, -184(%rbp)
	.loc	25 3209 42 is_stmt 0            ## /usr/local/include/fmt/core.h:3209:42
	movq	-144(%rbp), %rax
	leaq	-208(%rbp), %rcx
	movq	%rcx, -64(%rbp)
	movq	%rax, -72(%rbp)
	movq	-64(%rbp), %rcx
Ltmp24:
	.loc	25 1955 27 is_stmt 1            ## /usr/local/include/fmt/core.h:1955:27
	movq	-72(%rbp), %rax
	movq	%rax, -56(%rbp)
	movq	-56(%rbp), %rax
	movq	%rcx, -32(%rbp)
	movq	$221, -40(%rbp)
	movq	%rax, -48(%rbp)
	movq	-32(%rbp), %rdx
Ltmp25:
	.loc	25 1939 38                      ## /usr/local/include/fmt/core.h:1939:38
	movq	-40(%rbp), %rcx
	movq	-48(%rbp), %rax
	movq	%rdx, -8(%rbp)
	movq	%rcx, -16(%rbp)
	movq	%rax, -24(%rbp)
	movq	-8(%rbp), %rax
Ltmp26:
	.loc	25 1939 15 is_stmt 0            ## /usr/local/include/fmt/core.h:1939:15
	movq	-16(%rbp), %rcx
	.loc	25 1939 9                       ## /usr/local/include/fmt/core.h:1939:9
	movq	%rcx, (%rax)
	.loc	25 1939 30                      ## /usr/local/include/fmt/core.h:1939:30
	movq	-24(%rbp), %rcx
	.loc	25 1939 22                      ## /usr/local/include/fmt/core.h:1939:22
	movq	%rcx, 8(%rax)
Ltmp27:
	.loc	25 3209 30 is_stmt 1            ## /usr/local/include/fmt/core.h:3209:30
	movq	-192(%rbp), %rdi
	movq	-184(%rbp), %rsi
	movq	-208(%rbp), %rdx
	movq	-200(%rbp), %rcx
Ltmp5:
	callq	__ZN3fmt2v86vprintENS0_17basic_string_viewIcEENS0_17basic_format_argsINS0_20basic_format_contextINS0_8appenderEcEEEE
Ltmp6:
	jmp	LBB0_4
Ltmp28:
LBB0_4:                                 ## %_ZN3fmt2v85printIJNSt3__112basic_stringIcNS2_11char_traitsIcEENS2_9allocatorIcEEEES8_EEEvNS0_19basic_format_stringIcJDpNS0_13type_identityIT_E4typeEEEEDpOSB_.exit
	##DEBUG_VALUE: parser:pkt <- [DW_OP_constu 384, DW_OP_minus, DW_OP_deref] [$rbp+0]
	.loc	25 3209 3 is_stmt 0             ## /usr/local/include/fmt/core.h:3209:3
	jmp	LBB0_5
Ltmp29:
LBB0_5:
	##DEBUG_VALUE: parser:pkt <- [DW_OP_constu 384, DW_OP_minus, DW_OP_deref] [$rbp+0]
	.loc	82 17 9 is_stmt 1               ## SRC/Protocols/parser.cpp:17:9
	leaq	-360(%rbp), %rdi
	callq	__ZNSt3__112basic_stringIcNS_11char_traitsIcEENS_9allocatorIcEEED1Ev
	leaq	-336(%rbp), %rdi
	callq	__ZNSt3__112basic_stringIcNS_11char_traitsIcEENS_9allocatorIcEEED1Ev
	.loc	82 18 5                         ## SRC/Protocols/parser.cpp:18:5
	jmp	LBB0_9
Ltmp30:
LBB0_6:
	##DEBUG_VALUE: parser:pkt <- [DW_OP_constu 384, DW_OP_minus, DW_OP_deref] [$rbp+0]
Ltmp2:
	.loc	82 0 5 is_stmt 0                ## SRC/Protocols/parser.cpp:0:5
	movq	%rax, %rcx
	.loc	82 19 1 is_stmt 1               ## SRC/Protocols/parser.cpp:19:1
	movl	%edx, %eax
	movq	%rcx, -368(%rbp)
	movl	%eax, -372(%rbp)
	jmp	LBB0_8
Ltmp31:
LBB0_7:
	##DEBUG_VALUE: parser:pkt <- [DW_OP_constu 384, DW_OP_minus, DW_OP_deref] [$rbp+0]
Ltmp7:
	.loc	82 0 1 is_stmt 0                ## SRC/Protocols/parser.cpp:0:1
	movq	%rax, %rcx
	.loc	82 19 1                         ## SRC/Protocols/parser.cpp:19:1
	movl	%edx, %eax
	movq	%rcx, -368(%rbp)
	movl	%eax, -372(%rbp)
	.loc	82 17 9 is_stmt 1               ## SRC/Protocols/parser.cpp:17:9
	leaq	-360(%rbp), %rdi
	callq	__ZNSt3__112basic_stringIcNS_11char_traitsIcEENS_9allocatorIcEEED1Ev
Ltmp32:
LBB0_8:
	##DEBUG_VALUE: parser:pkt <- [DW_OP_constu 384, DW_OP_minus, DW_OP_deref] [$rbp+0]
	leaq	-336(%rbp), %rdi
	callq	__ZNSt3__112basic_stringIcNS_11char_traitsIcEENS_9allocatorIcEEED1Ev
	jmp	LBB0_10
Ltmp33:
LBB0_9:
	##DEBUG_VALUE: parser:pkt <- [DW_OP_constu 384, DW_OP_minus, DW_OP_deref] [$rbp+0]
	.loc	82 19 1                         ## SRC/Protocols/parser.cpp:19:1
	addq	$400, %rsp                      ## imm = 0x190
	popq	%rbp
	retq
Ltmp34:
LBB0_10:
	##DEBUG_VALUE: parser:pkt <- [DW_OP_constu 384, DW_OP_minus, DW_OP_deref] [$rbp+0]
	.loc	82 17 9                         ## SRC/Protocols/parser.cpp:17:9
	movq	-368(%rbp), %rdi
	callq	__Unwind_Resume
Ltmp35:
Lfunc_end0:
	.cfi_endproc
	.section	__TEXT,__gcc_except_tab
	.p2align	2
GCC_except_table0:
Lexception0:
	.byte	255                             ## @LPStart Encoding = omit
	.byte	255                             ## @TType Encoding = omit
	.byte	1                               ## Call site Encoding = uleb128
	.uleb128 Lcst_end0-Lcst_begin0
Lcst_begin0:
	.uleb128 Lfunc_begin0-Lfunc_begin0      ## >> Call Site 1 <<
	.uleb128 Ltmp0-Lfunc_begin0             ##   Call between Lfunc_begin0 and Ltmp0
	.byte	0                               ##     has no landing pad
	.byte	0                               ##   On action: cleanup
	.uleb128 Ltmp0-Lfunc_begin0             ## >> Call Site 2 <<
	.uleb128 Ltmp1-Ltmp0                    ##   Call between Ltmp0 and Ltmp1
	.uleb128 Ltmp2-Lfunc_begin0             ##     jumps to Ltmp2
	.byte	0                               ##   On action: cleanup
	.uleb128 Ltmp3-Lfunc_begin0             ## >> Call Site 3 <<
	.uleb128 Ltmp6-Ltmp3                    ##   Call between Ltmp3 and Ltmp6
	.uleb128 Ltmp7-Lfunc_begin0             ##     jumps to Ltmp7
	.byte	0                               ##   On action: cleanup
	.uleb128 Ltmp6-Lfunc_begin0             ## >> Call Site 4 <<
	.uleb128 Lfunc_end0-Ltmp6               ##   Call between Ltmp6 and Lfunc_end0
	.byte	0                               ##     has no landing pad
	.byte	0                               ##   On action: cleanup
Lcst_end0:
	.p2align	2
                                        ## -- End function
	.section	__TEXT,__text,regular,pure_instructions
	.globl	__ZNK4pcpp6Packet14isPacketOfTypeEy ## -- Begin function _ZNK4pcpp6Packet14isPacketOfTypeEy
	.weak_definition	__ZNK4pcpp6Packet14isPacketOfTypeEy
	.p2align	4, 0x90
__ZNK4pcpp6Packet14isPacketOfTypeEy:    ## @_ZNK4pcpp6Packet14isPacketOfTypeEy
Lfunc_begin1:
	.loc	32 293 0                        ## /usr/local/include/pcapplusplus/Packet.h:293:0
	.cfi_startproc
## %bb.0:
	pushq	%rbp
	.cfi_def_cfa_offset 16
	.cfi_offset %rbp, -16
	movq	%rsp, %rbp
	.cfi_def_cfa_register %rbp
	movq	%rdi, -8(%rbp)
	movq	%rsi, -16(%rbp)
	movq	-8(%rbp), %rax
Ltmp36:
	.loc	32 293 65 prologue_end          ## /usr/local/include/pcapplusplus/Packet.h:293:65
	movq	32(%rax), %rax
	.loc	32 293 81 is_stmt 0             ## /usr/local/include/pcapplusplus/Packet.h:293:81
	andq	-16(%rbp), %rax
	.loc	32 293 65                       ## /usr/local/include/pcapplusplus/Packet.h:293:65
	cmpq	$0, %rax
	setne	%al
	.loc	32 293 58                       ## /usr/local/include/pcapplusplus/Packet.h:293:58
	andb	$1, %al
	movzbl	%al, %eax
	popq	%rbp
	retq
Ltmp37:
Lfunc_end1:
	.cfi_endproc
                                        ## -- End function
	.globl	__ZNK4pcpp6Packet14getLayerOfTypeINS_9IPv4LayerEEEPT_b ## -- Begin function _ZNK4pcpp6Packet14getLayerOfTypeINS_9IPv4LayerEEEPT_b
	.weak_definition	__ZNK4pcpp6Packet14getLayerOfTypeINS_9IPv4LayerEEEPT_b
	.p2align	4, 0x90
__ZNK4pcpp6Packet14getLayerOfTypeINS_9IPv4LayerEEEPT_b: ## @_ZNK4pcpp6Packet14getLayerOfTypeINS_9IPv4LayerEEEPT_b
Lfunc_begin2:
	.loc	32 338 0 is_stmt 1              ## /usr/local/include/pcapplusplus/Packet.h:338:0
	.cfi_startproc
## %bb.0:
	pushq	%rbp
	.cfi_def_cfa_offset 16
	.cfi_offset %rbp, -16
	movq	%rsp, %rbp
	.cfi_def_cfa_register %rbp
	subq	$96, %rsp
	movb	%sil, %al
	movq	%rdi, -16(%rbp)
	andb	$1, %al
	movb	%al, -17(%rbp)
	movq	-16(%rbp), %rax
	movq	%rax, -32(%rbp)                 ## 8-byte Spill
Ltmp38:
	.loc	32 339 7 prologue_end           ## /usr/local/include/pcapplusplus/Packet.h:339:7
	testb	$1, -17(%rbp)
	jne	LBB2_10
## %bb.1:
	.loc	32 0 7 is_stmt 0                ## /usr/local/include/pcapplusplus/Packet.h:0:7
	movq	-32(%rbp), %rdi                 ## 8-byte Reload
Ltmp39:
	.loc	32 341 30 is_stmt 1             ## /usr/local/include/pcapplusplus/Packet.h:341:30
	callq	__ZNK4pcpp6Packet13getFirstLayerEv
	movq	%rax, -40(%rbp)                 ## 8-byte Spill
	.loc	32 341 8 is_stmt 0              ## /usr/local/include/pcapplusplus/Packet.h:341:8
	cmpq	$0, %rax
	je	LBB2_3
## %bb.2:
	.loc	32 0 8                          ## /usr/local/include/pcapplusplus/Packet.h:0:8
	movq	-40(%rbp), %rdi                 ## 8-byte Reload
	.loc	32 341 8                        ## /usr/local/include/pcapplusplus/Packet.h:341:8
	movq	__ZTIN4pcpp5LayerE@GOTPCREL(%rip), %rsi
	movq	__ZTIN4pcpp9IPv4LayerE@GOTPCREL(%rip), %rdx
	xorl	%eax, %eax
	movl	%eax, %ecx
	callq	___dynamic_cast
	movq	%rax, -48(%rbp)                 ## 8-byte Spill
	jmp	LBB2_4
LBB2_3:
	xorl	%eax, %eax
                                        ## kill: def $rax killed $eax
	movq	%rax, -48(%rbp)                 ## 8-byte Spill
	jmp	LBB2_4
LBB2_4:
	.loc	32 0 8                          ## /usr/local/include/pcapplusplus/Packet.h:0:8
	movq	-48(%rbp), %rax                 ## 8-byte Reload
	.loc	32 341 47                       ## /usr/local/include/pcapplusplus/Packet.h:341:47
	cmpq	$0, %rax
Ltmp40:
	.loc	32 341 8                        ## /usr/local/include/pcapplusplus/Packet.h:341:8
	je	LBB2_9
## %bb.5:
	.loc	32 0 8                          ## /usr/local/include/pcapplusplus/Packet.h:0:8
	movq	-32(%rbp), %rdi                 ## 8-byte Reload
Ltmp41:
	.loc	32 342 34 is_stmt 1             ## /usr/local/include/pcapplusplus/Packet.h:342:34
	callq	__ZNK4pcpp6Packet13getFirstLayerEv
	movq	%rax, -56(%rbp)                 ## 8-byte Spill
	.loc	32 342 12 is_stmt 0             ## /usr/local/include/pcapplusplus/Packet.h:342:12
	cmpq	$0, %rax
	je	LBB2_7
## %bb.6:
	.loc	32 0 12                         ## /usr/local/include/pcapplusplus/Packet.h:0:12
	movq	-56(%rbp), %rdi                 ## 8-byte Reload
	.loc	32 342 12                       ## /usr/local/include/pcapplusplus/Packet.h:342:12
	movq	__ZTIN4pcpp5LayerE@GOTPCREL(%rip), %rsi
	movq	__ZTIN4pcpp9IPv4LayerE@GOTPCREL(%rip), %rdx
	xorl	%eax, %eax
	movl	%eax, %ecx
	callq	___dynamic_cast
	movq	%rax, -64(%rbp)                 ## 8-byte Spill
	jmp	LBB2_8
LBB2_7:
	xorl	%eax, %eax
                                        ## kill: def $rax killed $eax
	movq	%rax, -64(%rbp)                 ## 8-byte Spill
	jmp	LBB2_8
LBB2_8:
	.loc	32 0 12                         ## /usr/local/include/pcapplusplus/Packet.h:0:12
	movq	-64(%rbp), %rax                 ## 8-byte Reload
	.loc	32 342 5                        ## /usr/local/include/pcapplusplus/Packet.h:342:5
	movq	%rax, -8(%rbp)
	jmp	LBB2_19
Ltmp42:
LBB2_9:
	.loc	32 0 5                          ## /usr/local/include/pcapplusplus/Packet.h:0:5
	movq	-32(%rbp), %rdi                 ## 8-byte Reload
	.loc	32 344 38 is_stmt 1             ## /usr/local/include/pcapplusplus/Packet.h:344:38
	callq	__ZNK4pcpp6Packet13getFirstLayerEv
	movq	-32(%rbp), %rdi                 ## 8-byte Reload
	movq	%rax, %rsi
	.loc	32 344 11 is_stmt 0             ## /usr/local/include/pcapplusplus/Packet.h:344:11
	callq	__ZNK4pcpp6Packet18getNextLayerOfTypeINS_9IPv4LayerEEEPT_PNS_5LayerE
	.loc	32 344 4                        ## /usr/local/include/pcapplusplus/Packet.h:344:4
	movq	%rax, -8(%rbp)
	jmp	LBB2_19
Ltmp43:
LBB2_10:
	.loc	32 0 4                          ## /usr/local/include/pcapplusplus/Packet.h:0:4
	movq	-32(%rbp), %rdi                 ## 8-byte Reload
Ltmp44:
	.loc	32 348 29 is_stmt 1             ## /usr/local/include/pcapplusplus/Packet.h:348:29
	callq	__ZNK4pcpp6Packet12getLastLayerEv
	movq	%rax, -72(%rbp)                 ## 8-byte Spill
	.loc	32 348 7 is_stmt 0              ## /usr/local/include/pcapplusplus/Packet.h:348:7
	cmpq	$0, %rax
	je	LBB2_12
## %bb.11:
	.loc	32 0 7                          ## /usr/local/include/pcapplusplus/Packet.h:0:7
	movq	-72(%rbp), %rdi                 ## 8-byte Reload
	.loc	32 348 7                        ## /usr/local/include/pcapplusplus/Packet.h:348:7
	movq	__ZTIN4pcpp5LayerE@GOTPCREL(%rip), %rsi
	movq	__ZTIN4pcpp9IPv4LayerE@GOTPCREL(%rip), %rdx
	xorl	%eax, %eax
	movl	%eax, %ecx
	callq	___dynamic_cast
	movq	%rax, -80(%rbp)                 ## 8-byte Spill
	jmp	LBB2_13
LBB2_12:
	xorl	%eax, %eax
                                        ## kill: def $rax killed $eax
	movq	%rax, -80(%rbp)                 ## 8-byte Spill
	jmp	LBB2_13
LBB2_13:
	.loc	32 0 7                          ## /usr/local/include/pcapplusplus/Packet.h:0:7
	movq	-80(%rbp), %rax                 ## 8-byte Reload
	.loc	32 348 45                       ## /usr/local/include/pcapplusplus/Packet.h:348:45
	cmpq	$0, %rax
Ltmp45:
	.loc	32 348 7                        ## /usr/local/include/pcapplusplus/Packet.h:348:7
	je	LBB2_18
## %bb.14:
	.loc	32 0 7                          ## /usr/local/include/pcapplusplus/Packet.h:0:7
	movq	-32(%rbp), %rdi                 ## 8-byte Reload
Ltmp46:
	.loc	32 349 33 is_stmt 1             ## /usr/local/include/pcapplusplus/Packet.h:349:33
	callq	__ZNK4pcpp6Packet12getLastLayerEv
	movq	%rax, -88(%rbp)                 ## 8-byte Spill
	.loc	32 349 11 is_stmt 0             ## /usr/local/include/pcapplusplus/Packet.h:349:11
	cmpq	$0, %rax
	je	LBB2_16
## %bb.15:
	.loc	32 0 11                         ## /usr/local/include/pcapplusplus/Packet.h:0:11
	movq	-88(%rbp), %rdi                 ## 8-byte Reload
	.loc	32 349 11                       ## /usr/local/include/pcapplusplus/Packet.h:349:11
	movq	__ZTIN4pcpp5LayerE@GOTPCREL(%rip), %rsi
	movq	__ZTIN4pcpp9IPv4LayerE@GOTPCREL(%rip), %rdx
	xorl	%eax, %eax
	movl	%eax, %ecx
	callq	___dynamic_cast
	movq	%rax, -96(%rbp)                 ## 8-byte Spill
	jmp	LBB2_17
LBB2_16:
	xorl	%eax, %eax
                                        ## kill: def $rax killed $eax
	movq	%rax, -96(%rbp)                 ## 8-byte Spill
	jmp	LBB2_17
LBB2_17:
	.loc	32 0 11                         ## /usr/local/include/pcapplusplus/Packet.h:0:11
	movq	-96(%rbp), %rax                 ## 8-byte Reload
	.loc	32 349 4                        ## /usr/local/include/pcapplusplus/Packet.h:349:4
	movq	%rax, -8(%rbp)
	jmp	LBB2_19
Ltmp47:
LBB2_18:
	.loc	32 0 4                          ## /usr/local/include/pcapplusplus/Packet.h:0:4
	movq	-32(%rbp), %rdi                 ## 8-byte Reload
	.loc	32 351 37 is_stmt 1             ## /usr/local/include/pcapplusplus/Packet.h:351:37
	callq	__ZNK4pcpp6Packet12getLastLayerEv
	movq	-32(%rbp), %rdi                 ## 8-byte Reload
	movq	%rax, %rsi
	.loc	32 351 10 is_stmt 0             ## /usr/local/include/pcapplusplus/Packet.h:351:10
	callq	__ZNK4pcpp6Packet18getPrevLayerOfTypeINS_9IPv4LayerEEEPT_PNS_5LayerE
	.loc	32 351 3                        ## /usr/local/include/pcapplusplus/Packet.h:351:3
	movq	%rax, -8(%rbp)
LBB2_19:
	.loc	32 352 2 is_stmt 1              ## /usr/local/include/pcapplusplus/Packet.h:352:2
	movq	-8(%rbp), %rax
	addq	$96, %rsp
	popq	%rbp
	retq
Ltmp48:
Lfunc_end2:
	.cfi_endproc
                                        ## -- End function
	.globl	__ZNK4pcpp9IPv4Layer17getSrcIPv4AddressEv ## -- Begin function _ZNK4pcpp9IPv4Layer17getSrcIPv4AddressEv
	.weak_definition	__ZNK4pcpp9IPv4Layer17getSrcIPv4AddressEv
	.p2align	4, 0x90
__ZNK4pcpp9IPv4Layer17getSrcIPv4AddressEv: ## @_ZNK4pcpp9IPv4Layer17getSrcIPv4AddressEv
Lfunc_begin3:
	.loc	22 472 0                        ## /usr/local/include/pcapplusplus/IPv4Layer.h:472:0
	.cfi_startproc
## %bb.0:
	pushq	%rbp
	.cfi_def_cfa_offset 16
	.cfi_offset %rbp, -16
	movq	%rsp, %rbp
	.cfi_def_cfa_register %rbp
	subq	$16, %rsp
	movq	%rdi, -16(%rbp)
	movq	-16(%rbp), %rdi
Ltmp49:
	.loc	22 472 50 prologue_end          ## /usr/local/include/pcapplusplus/IPv4Layer.h:472:50
	callq	__ZNK4pcpp9IPv4Layer13getIPv4HeaderEv
	.loc	22 472 67 is_stmt 0             ## /usr/local/include/pcapplusplus/IPv4Layer.h:472:67
	movl	12(%rax), %esi
	.loc	22 472 50                       ## /usr/local/include/pcapplusplus/IPv4Layer.h:472:50
	leaq	-8(%rbp), %rdi
	callq	__ZN4pcpp11IPv4AddressC1Ej
	.loc	22 472 43                       ## /usr/local/include/pcapplusplus/IPv4Layer.h:472:43
	movl	-8(%rbp), %eax
	addq	$16, %rsp
	popq	%rbp
	retq
Ltmp50:
Lfunc_end3:
	.cfi_endproc
                                        ## -- End function
	.globl	__ZNK4pcpp9IPv4Layer17getDstIPv4AddressEv ## -- Begin function _ZNK4pcpp9IPv4Layer17getDstIPv4AddressEv
	.weak_definition	__ZNK4pcpp9IPv4Layer17getDstIPv4AddressEv
	.p2align	4, 0x90
__ZNK4pcpp9IPv4Layer17getDstIPv4AddressEv: ## @_ZNK4pcpp9IPv4Layer17getDstIPv4AddressEv
Lfunc_begin4:
	.loc	22 491 0 is_stmt 1              ## /usr/local/include/pcapplusplus/IPv4Layer.h:491:0
	.cfi_startproc
## %bb.0:
	pushq	%rbp
	.cfi_def_cfa_offset 16
	.cfi_offset %rbp, -16
	movq	%rsp, %rbp
	.cfi_def_cfa_register %rbp
	subq	$16, %rsp
	movq	%rdi, -16(%rbp)
	movq	-16(%rbp), %rdi
Ltmp51:
	.loc	22 491 50 prologue_end          ## /usr/local/include/pcapplusplus/IPv4Layer.h:491:50
	callq	__ZNK4pcpp9IPv4Layer13getIPv4HeaderEv
	.loc	22 491 67 is_stmt 0             ## /usr/local/include/pcapplusplus/IPv4Layer.h:491:67
	movl	16(%rax), %esi
	.loc	22 491 50                       ## /usr/local/include/pcapplusplus/IPv4Layer.h:491:50
	leaq	-8(%rbp), %rdi
	callq	__ZN4pcpp11IPv4AddressC1Ej
	.loc	22 491 43                       ## /usr/local/include/pcapplusplus/IPv4Layer.h:491:43
	movl	-8(%rbp), %eax
	addq	$16, %rsp
	popq	%rbp
	retq
Ltmp52:
Lfunc_end4:
	.cfi_endproc
                                        ## -- End function
	.globl	__ZNK4pcpp9IPv4Layer13getIPv4HeaderEv ## -- Begin function _ZNK4pcpp9IPv4Layer13getIPv4HeaderEv
	.weak_definition	__ZNK4pcpp9IPv4Layer13getIPv4HeaderEv
	.p2align	4, 0x90
__ZNK4pcpp9IPv4Layer13getIPv4HeaderEv:  ## @_ZNK4pcpp9IPv4Layer13getIPv4HeaderEv
Lfunc_begin5:
	.loc	22 459 0 is_stmt 1              ## /usr/local/include/pcapplusplus/IPv4Layer.h:459:0
	.cfi_startproc
## %bb.0:
	pushq	%rbp
	.cfi_def_cfa_offset 16
	.cfi_offset %rbp, -16
	movq	%rsp, %rbp
	.cfi_def_cfa_register %rbp
	movq	%rdi, -8(%rbp)
	movq	-8(%rbp), %rax
Ltmp53:
	.loc	22 459 49 prologue_end          ## /usr/local/include/pcapplusplus/IPv4Layer.h:459:49
	movq	8(%rax), %rax
	.loc	22 459 34 is_stmt 0             ## /usr/local/include/pcapplusplus/IPv4Layer.h:459:34
	popq	%rbp
	retq
Ltmp54:
Lfunc_end5:
	.cfi_endproc
                                        ## -- End function
	.globl	__ZN4pcpp11IPv4AddressC1Ej      ## -- Begin function _ZN4pcpp11IPv4AddressC1Ej
	.weak_def_can_be_hidden	__ZN4pcpp11IPv4AddressC1Ej
	.p2align	4, 0x90
__ZN4pcpp11IPv4AddressC1Ej:             ## @_ZN4pcpp11IPv4AddressC1Ej
Lfunc_begin6:
	.loc	5 39 0 is_stmt 1                ## /usr/local/include/pcapplusplus/IpAddress.h:39:0
	.cfi_startproc
## %bb.0:
	pushq	%rbp
	.cfi_def_cfa_offset 16
	.cfi_offset %rbp, -16
	movq	%rsp, %rbp
	.cfi_def_cfa_register %rbp
	subq	$16, %rsp
	movq	%rdi, -8(%rbp)
	movl	%esi, -12(%rbp)
	movq	-8(%rbp), %rdi
Ltmp55:
	.loc	5 39 35 prologue_end            ## /usr/local/include/pcapplusplus/IpAddress.h:39:35
	movl	-12(%rbp), %esi
	callq	__ZN4pcpp11IPv4AddressC2Ej
	.loc	5 39 83 is_stmt 0               ## /usr/local/include/pcapplusplus/IpAddress.h:39:83
	addq	$16, %rsp
	popq	%rbp
	retq
Ltmp56:
Lfunc_end6:
	.cfi_endproc
                                        ## -- End function
	.globl	__ZN4pcpp11IPv4AddressC2Ej      ## -- Begin function _ZN4pcpp11IPv4AddressC2Ej
	.weak_def_can_be_hidden	__ZN4pcpp11IPv4AddressC2Ej
	.p2align	4, 0x90
__ZN4pcpp11IPv4AddressC2Ej:             ## @_ZN4pcpp11IPv4AddressC2Ej
Lfunc_begin7:
	.loc	5 39 0 is_stmt 1                ## /usr/local/include/pcapplusplus/IpAddress.h:39:0
	.cfi_startproc
## %bb.0:
	pushq	%rbp
	.cfi_def_cfa_offset 16
	.cfi_offset %rbp, -16
	movq	%rsp, %rbp
	.cfi_def_cfa_register %rbp
	movq	%rdi, -8(%rbp)
	movl	%esi, -12(%rbp)
	movq	-8(%rbp), %rax
Ltmp57:
	.loc	5 39 37 prologue_end            ## /usr/local/include/pcapplusplus/IpAddress.h:39:37
	movl	-12(%rbp), %ecx
	movl	%ecx, (%rax)
Ltmp58:
	.loc	5 39 83 is_stmt 0               ## /usr/local/include/pcapplusplus/IpAddress.h:39:83
	popq	%rbp
	retq
Ltmp59:
Lfunc_end7:
	.cfi_endproc
                                        ## -- End function
	.globl	__ZNK4pcpp6Packet13getFirstLayerEv ## -- Begin function _ZNK4pcpp6Packet13getFirstLayerEv
	.weak_definition	__ZNK4pcpp6Packet13getFirstLayerEv
	.p2align	4, 0x90
__ZNK4pcpp6Packet13getFirstLayerEv:     ## @_ZNK4pcpp6Packet13getFirstLayerEv
Lfunc_begin8:
	.loc	32 146 0 is_stmt 1              ## /usr/local/include/pcapplusplus/Packet.h:146:0
	.cfi_startproc
## %bb.0:
	pushq	%rbp
	.cfi_def_cfa_offset 16
	.cfi_offset %rbp, -16
	movq	%rsp, %rbp
	.cfi_def_cfa_register %rbp
	movq	%rdi, -8(%rbp)
	movq	-8(%rbp), %rax
Ltmp60:
	.loc	32 146 41 prologue_end          ## /usr/local/include/pcapplusplus/Packet.h:146:41
	movq	16(%rax), %rax
	.loc	32 146 34 is_stmt 0             ## /usr/local/include/pcapplusplus/Packet.h:146:34
	popq	%rbp
	retq
Ltmp61:
Lfunc_end8:
	.cfi_endproc
                                        ## -- End function
	.globl	__ZNK4pcpp6Packet18getNextLayerOfTypeINS_9IPv4LayerEEEPT_PNS_5LayerE ## -- Begin function _ZNK4pcpp6Packet18getNextLayerOfTypeINS_9IPv4LayerEEEPT_PNS_5LayerE
	.weak_definition	__ZNK4pcpp6Packet18getNextLayerOfTypeINS_9IPv4LayerEEEPT_PNS_5LayerE
	.p2align	4, 0x90
__ZNK4pcpp6Packet18getNextLayerOfTypeINS_9IPv4LayerEEEPT_PNS_5LayerE: ## @_ZNK4pcpp6Packet18getNextLayerOfTypeINS_9IPv4LayerEEEPT_PNS_5LayerE
Lfunc_begin9:
	.loc	32 356 0 is_stmt 1              ## /usr/local/include/pcapplusplus/Packet.h:356:0
	.cfi_startproc
## %bb.0:
	pushq	%rbp
	.cfi_def_cfa_offset 16
	.cfi_offset %rbp, -16
	movq	%rsp, %rbp
	.cfi_def_cfa_register %rbp
	subq	$64, %rsp
	movq	%rdi, -16(%rbp)
	movq	%rsi, -24(%rbp)
Ltmp62:
	.loc	32 357 16 prologue_end          ## /usr/local/include/pcapplusplus/Packet.h:357:16
	cmpq	$0, -24(%rbp)
Ltmp63:
	.loc	32 357 7 is_stmt 0              ## /usr/local/include/pcapplusplus/Packet.h:357:7
	jne	LBB9_2
## %bb.1:
Ltmp64:
	.loc	32 358 4 is_stmt 1              ## /usr/local/include/pcapplusplus/Packet.h:358:4
	movq	$0, -8(%rbp)
	jmp	LBB9_14
Ltmp65:
LBB9_2:
	.loc	32 360 14                       ## /usr/local/include/pcapplusplus/Packet.h:360:14
	movq	-24(%rbp), %rdi
	.loc	32 360 24 is_stmt 0             ## /usr/local/include/pcapplusplus/Packet.h:360:24
	callq	__ZNK4pcpp5Layer12getNextLayerEv
	.loc	32 360 12                       ## /usr/local/include/pcapplusplus/Packet.h:360:12
	movq	%rax, -24(%rbp)
LBB9_3:                                 ## =>This Inner Loop Header: Depth=1
	.loc	32 361 20 is_stmt 1             ## /usr/local/include/pcapplusplus/Packet.h:361:20
	xorl	%eax, %eax
                                        ## kill: def $al killed $al killed $eax
	cmpq	$0, -24(%rbp)
	movb	%al, -25(%rbp)                  ## 1-byte Spill
	.loc	32 361 31 is_stmt 0             ## /usr/local/include/pcapplusplus/Packet.h:361:31
	je	LBB9_8
## %bb.4:                               ##   in Loop: Header=BB9_3 Depth=1
	.loc	32 361 57                       ## /usr/local/include/pcapplusplus/Packet.h:361:57
	movq	-24(%rbp), %rax
	movq	%rax, -40(%rbp)                 ## 8-byte Spill
	.loc	32 361 35                       ## /usr/local/include/pcapplusplus/Packet.h:361:35
	cmpq	$0, %rax
	je	LBB9_6
## %bb.5:                               ##   in Loop: Header=BB9_3 Depth=1
	.loc	32 0 35                         ## /usr/local/include/pcapplusplus/Packet.h:0:35
	movq	-40(%rbp), %rdi                 ## 8-byte Reload
	.loc	32 361 35                       ## /usr/local/include/pcapplusplus/Packet.h:361:35
	movq	__ZTIN4pcpp5LayerE@GOTPCREL(%rip), %rsi
	movq	__ZTIN4pcpp9IPv4LayerE@GOTPCREL(%rip), %rdx
	xorl	%eax, %eax
	movl	%eax, %ecx
	callq	___dynamic_cast
	movq	%rax, -48(%rbp)                 ## 8-byte Spill
	jmp	LBB9_7
LBB9_6:                                 ##   in Loop: Header=BB9_3 Depth=1
	xorl	%eax, %eax
                                        ## kill: def $rax killed $eax
	movq	%rax, -48(%rbp)                 ## 8-byte Spill
	jmp	LBB9_7
LBB9_7:                                 ##   in Loop: Header=BB9_3 Depth=1
	.loc	32 0 35                         ## /usr/local/include/pcapplusplus/Packet.h:0:35
	movq	-48(%rbp), %rax                 ## 8-byte Reload
	.loc	32 361 67                       ## /usr/local/include/pcapplusplus/Packet.h:361:67
	cmpq	$0, %rax
	sete	%al
	movb	%al, -25(%rbp)                  ## 1-byte Spill
LBB9_8:                                 ##   in Loop: Header=BB9_3 Depth=1
	.loc	32 0 67                         ## /usr/local/include/pcapplusplus/Packet.h:0:67
	movb	-25(%rbp), %al                  ## 1-byte Reload
	.loc	32 361 3                        ## /usr/local/include/pcapplusplus/Packet.h:361:3
	testb	$1, %al
	jne	LBB9_9
	jmp	LBB9_10
LBB9_9:                                 ##   in Loop: Header=BB9_3 Depth=1
Ltmp66:
	.loc	32 363 15 is_stmt 1             ## /usr/local/include/pcapplusplus/Packet.h:363:15
	movq	-24(%rbp), %rdi
	.loc	32 363 25 is_stmt 0             ## /usr/local/include/pcapplusplus/Packet.h:363:25
	callq	__ZNK4pcpp5Layer12getNextLayerEv
	.loc	32 363 13                       ## /usr/local/include/pcapplusplus/Packet.h:363:13
	movq	%rax, -24(%rbp)
Ltmp67:
	.loc	32 361 3 is_stmt 1              ## /usr/local/include/pcapplusplus/Packet.h:361:3
	jmp	LBB9_3
LBB9_10:
	.loc	32 366 32                       ## /usr/local/include/pcapplusplus/Packet.h:366:32
	movq	-24(%rbp), %rax
	movq	%rax, -56(%rbp)                 ## 8-byte Spill
	.loc	32 366 10 is_stmt 0             ## /usr/local/include/pcapplusplus/Packet.h:366:10
	cmpq	$0, %rax
	je	LBB9_12
## %bb.11:
	.loc	32 0 10                         ## /usr/local/include/pcapplusplus/Packet.h:0:10
	movq	-56(%rbp), %rdi                 ## 8-byte Reload
	.loc	32 366 10                       ## /usr/local/include/pcapplusplus/Packet.h:366:10
	movq	__ZTIN4pcpp5LayerE@GOTPCREL(%rip), %rsi
	movq	__ZTIN4pcpp9IPv4LayerE@GOTPCREL(%rip), %rdx
	xorl	%eax, %eax
	movl	%eax, %ecx
	callq	___dynamic_cast
	movq	%rax, -64(%rbp)                 ## 8-byte Spill
	jmp	LBB9_13
LBB9_12:
	xorl	%eax, %eax
                                        ## kill: def $rax killed $eax
	movq	%rax, -64(%rbp)                 ## 8-byte Spill
	jmp	LBB9_13
LBB9_13:
	.loc	32 0 10                         ## /usr/local/include/pcapplusplus/Packet.h:0:10
	movq	-64(%rbp), %rax                 ## 8-byte Reload
	.loc	32 366 3                        ## /usr/local/include/pcapplusplus/Packet.h:366:3
	movq	%rax, -8(%rbp)
LBB9_14:
	.loc	32 367 2 is_stmt 1              ## /usr/local/include/pcapplusplus/Packet.h:367:2
	movq	-8(%rbp), %rax
	addq	$64, %rsp
	popq	%rbp
	retq
Ltmp68:
Lfunc_end9:
	.cfi_endproc
                                        ## -- End function
	.globl	__ZNK4pcpp6Packet12getLastLayerEv ## -- Begin function _ZNK4pcpp6Packet12getLastLayerEv
	.weak_definition	__ZNK4pcpp6Packet12getLastLayerEv
	.p2align	4, 0x90
__ZNK4pcpp6Packet12getLastLayerEv:      ## @_ZNK4pcpp6Packet12getLastLayerEv
Lfunc_begin10:
	.loc	32 152 0                        ## /usr/local/include/pcapplusplus/Packet.h:152:0
	.cfi_startproc
## %bb.0:
	pushq	%rbp
	.cfi_def_cfa_offset 16
	.cfi_offset %rbp, -16
	movq	%rsp, %rbp
	.cfi_def_cfa_register %rbp
	movq	%rdi, -8(%rbp)
	movq	-8(%rbp), %rax
Ltmp69:
	.loc	32 152 40 prologue_end          ## /usr/local/include/pcapplusplus/Packet.h:152:40
	movq	24(%rax), %rax
	.loc	32 152 33 is_stmt 0             ## /usr/local/include/pcapplusplus/Packet.h:152:33
	popq	%rbp
	retq
Ltmp70:
Lfunc_end10:
	.cfi_endproc
                                        ## -- End function
	.globl	__ZNK4pcpp6Packet18getPrevLayerOfTypeINS_9IPv4LayerEEEPT_PNS_5LayerE ## -- Begin function _ZNK4pcpp6Packet18getPrevLayerOfTypeINS_9IPv4LayerEEEPT_PNS_5LayerE
	.weak_definition	__ZNK4pcpp6Packet18getPrevLayerOfTypeINS_9IPv4LayerEEEPT_PNS_5LayerE
	.p2align	4, 0x90
__ZNK4pcpp6Packet18getPrevLayerOfTypeINS_9IPv4LayerEEEPT_PNS_5LayerE: ## @_ZNK4pcpp6Packet18getPrevLayerOfTypeINS_9IPv4LayerEEEPT_PNS_5LayerE
Lfunc_begin11:
	.loc	32 371 0 is_stmt 1              ## /usr/local/include/pcapplusplus/Packet.h:371:0
	.cfi_startproc
## %bb.0:
	pushq	%rbp
	.cfi_def_cfa_offset 16
	.cfi_offset %rbp, -16
	movq	%rsp, %rbp
	.cfi_def_cfa_register %rbp
	subq	$64, %rsp
	movq	%rdi, -16(%rbp)
	movq	%rsi, -24(%rbp)
Ltmp71:
	.loc	32 372 16 prologue_end          ## /usr/local/include/pcapplusplus/Packet.h:372:16
	cmpq	$0, -24(%rbp)
Ltmp72:
	.loc	32 372 7 is_stmt 0              ## /usr/local/include/pcapplusplus/Packet.h:372:7
	jne	LBB11_2
## %bb.1:
Ltmp73:
	.loc	32 373 4 is_stmt 1              ## /usr/local/include/pcapplusplus/Packet.h:373:4
	movq	$0, -8(%rbp)
	jmp	LBB11_14
Ltmp74:
LBB11_2:
	.loc	32 375 14                       ## /usr/local/include/pcapplusplus/Packet.h:375:14
	movq	-24(%rbp), %rdi
	.loc	32 375 24 is_stmt 0             ## /usr/local/include/pcapplusplus/Packet.h:375:24
	callq	__ZNK4pcpp5Layer12getPrevLayerEv
	.loc	32 375 12                       ## /usr/local/include/pcapplusplus/Packet.h:375:12
	movq	%rax, -24(%rbp)
LBB11_3:                                ## =>This Inner Loop Header: Depth=1
	.loc	32 376 19 is_stmt 1             ## /usr/local/include/pcapplusplus/Packet.h:376:19
	xorl	%eax, %eax
                                        ## kill: def $al killed $al killed $eax
	cmpq	$0, -24(%rbp)
	movb	%al, -25(%rbp)                  ## 1-byte Spill
	.loc	32 376 29 is_stmt 0             ## /usr/local/include/pcapplusplus/Packet.h:376:29
	je	LBB11_8
## %bb.4:                               ##   in Loop: Header=BB11_3 Depth=1
	.loc	32 376 54                       ## /usr/local/include/pcapplusplus/Packet.h:376:54
	movq	-24(%rbp), %rax
	movq	%rax, -40(%rbp)                 ## 8-byte Spill
	.loc	32 376 32                       ## /usr/local/include/pcapplusplus/Packet.h:376:32
	cmpq	$0, %rax
	je	LBB11_6
## %bb.5:                               ##   in Loop: Header=BB11_3 Depth=1
	.loc	32 0 32                         ## /usr/local/include/pcapplusplus/Packet.h:0:32
	movq	-40(%rbp), %rdi                 ## 8-byte Reload
	.loc	32 376 32                       ## /usr/local/include/pcapplusplus/Packet.h:376:32
	movq	__ZTIN4pcpp5LayerE@GOTPCREL(%rip), %rsi
	movq	__ZTIN4pcpp9IPv4LayerE@GOTPCREL(%rip), %rdx
	xorl	%eax, %eax
	movl	%eax, %ecx
	callq	___dynamic_cast
	movq	%rax, -48(%rbp)                 ## 8-byte Spill
	jmp	LBB11_7
LBB11_6:                                ##   in Loop: Header=BB11_3 Depth=1
	xorl	%eax, %eax
                                        ## kill: def $rax killed $eax
	movq	%rax, -48(%rbp)                 ## 8-byte Spill
	jmp	LBB11_7
LBB11_7:                                ##   in Loop: Header=BB11_3 Depth=1
	.loc	32 0 32                         ## /usr/local/include/pcapplusplus/Packet.h:0:32
	movq	-48(%rbp), %rax                 ## 8-byte Reload
	.loc	32 376 64                       ## /usr/local/include/pcapplusplus/Packet.h:376:64
	cmpq	$0, %rax
	sete	%al
	movb	%al, -25(%rbp)                  ## 1-byte Spill
LBB11_8:                                ##   in Loop: Header=BB11_3 Depth=1
	.loc	32 0 64                         ## /usr/local/include/pcapplusplus/Packet.h:0:64
	movb	-25(%rbp), %al                  ## 1-byte Reload
	.loc	32 376 3                        ## /usr/local/include/pcapplusplus/Packet.h:376:3
	testb	$1, %al
	jne	LBB11_9
	jmp	LBB11_10
LBB11_9:                                ##   in Loop: Header=BB11_3 Depth=1
Ltmp75:
	.loc	32 378 15 is_stmt 1             ## /usr/local/include/pcapplusplus/Packet.h:378:15
	movq	-24(%rbp), %rdi
	.loc	32 378 25 is_stmt 0             ## /usr/local/include/pcapplusplus/Packet.h:378:25
	callq	__ZNK4pcpp5Layer12getPrevLayerEv
	.loc	32 378 13                       ## /usr/local/include/pcapplusplus/Packet.h:378:13
	movq	%rax, -24(%rbp)
Ltmp76:
	.loc	32 376 3 is_stmt 1              ## /usr/local/include/pcapplusplus/Packet.h:376:3
	jmp	LBB11_3
LBB11_10:
	.loc	32 381 32                       ## /usr/local/include/pcapplusplus/Packet.h:381:32
	movq	-24(%rbp), %rax
	movq	%rax, -56(%rbp)                 ## 8-byte Spill
	.loc	32 381 10 is_stmt 0             ## /usr/local/include/pcapplusplus/Packet.h:381:10
	cmpq	$0, %rax
	je	LBB11_12
## %bb.11:
	.loc	32 0 10                         ## /usr/local/include/pcapplusplus/Packet.h:0:10
	movq	-56(%rbp), %rdi                 ## 8-byte Reload
	.loc	32 381 10                       ## /usr/local/include/pcapplusplus/Packet.h:381:10
	movq	__ZTIN4pcpp5LayerE@GOTPCREL(%rip), %rsi
	movq	__ZTIN4pcpp9IPv4LayerE@GOTPCREL(%rip), %rdx
	xorl	%eax, %eax
	movl	%eax, %ecx
	callq	___dynamic_cast
	movq	%rax, -64(%rbp)                 ## 8-byte Spill
	jmp	LBB11_13
LBB11_12:
	xorl	%eax, %eax
                                        ## kill: def $rax killed $eax
	movq	%rax, -64(%rbp)                 ## 8-byte Spill
	jmp	LBB11_13
LBB11_13:
	.loc	32 0 10                         ## /usr/local/include/pcapplusplus/Packet.h:0:10
	movq	-64(%rbp), %rax                 ## 8-byte Reload
	.loc	32 381 3                        ## /usr/local/include/pcapplusplus/Packet.h:381:3
	movq	%rax, -8(%rbp)
LBB11_14:
	.loc	32 382 2 is_stmt 1              ## /usr/local/include/pcapplusplus/Packet.h:382:2
	movq	-8(%rbp), %rax
	addq	$64, %rsp
	popq	%rbp
	retq
Ltmp77:
Lfunc_end11:
	.cfi_endproc
                                        ## -- End function
	.globl	__ZNK4pcpp5Layer12getNextLayerEv ## -- Begin function _ZNK4pcpp5Layer12getNextLayerEv
	.weak_definition	__ZNK4pcpp5Layer12getNextLayerEv
	.p2align	4, 0x90
__ZNK4pcpp5Layer12getNextLayerEv:       ## @_ZNK4pcpp5Layer12getNextLayerEv
Lfunc_begin12:
	.loc	28 82 0                         ## /usr/local/include/pcapplusplus/Layer.h:82:0
	.cfi_startproc
## %bb.0:
	pushq	%rbp
	.cfi_def_cfa_offset 16
	.cfi_offset %rbp, -16
	movq	%rsp, %rbp
	.cfi_def_cfa_register %rbp
	movq	%rdi, -8(%rbp)
	movq	-8(%rbp), %rax
Ltmp78:
	.loc	28 82 40 prologue_end           ## /usr/local/include/pcapplusplus/Layer.h:82:40
	movq	40(%rax), %rax
	.loc	28 82 33 is_stmt 0              ## /usr/local/include/pcapplusplus/Layer.h:82:33
	popq	%rbp
	retq
Ltmp79:
Lfunc_end12:
	.cfi_endproc
                                        ## -- End function
	.globl	__ZNK4pcpp5Layer12getPrevLayerEv ## -- Begin function _ZNK4pcpp5Layer12getPrevLayerEv
	.weak_definition	__ZNK4pcpp5Layer12getPrevLayerEv
	.p2align	4, 0x90
__ZNK4pcpp5Layer12getPrevLayerEv:       ## @_ZNK4pcpp5Layer12getPrevLayerEv
Lfunc_begin13:
	.loc	28 87 0 is_stmt 1               ## /usr/local/include/pcapplusplus/Layer.h:87:0
	.cfi_startproc
## %bb.0:
	pushq	%rbp
	.cfi_def_cfa_offset 16
	.cfi_offset %rbp, -16
	movq	%rsp, %rbp
	.cfi_def_cfa_register %rbp
	movq	%rdi, -8(%rbp)
	movq	-8(%rbp), %rax
Ltmp80:
	.loc	28 87 40 prologue_end           ## /usr/local/include/pcapplusplus/Layer.h:87:40
	movq	48(%rax), %rax
	.loc	28 87 33 is_stmt 0              ## /usr/local/include/pcapplusplus/Layer.h:87:33
	popq	%rbp
	retq
Ltmp81:
Lfunc_end13:
	.cfi_endproc
                                        ## -- End function
	.globl	__ZN3fmt2v816make_format_argsINS0_20basic_format_contextINS0_8appenderEcEEJRNSt3__112basic_stringIcNS5_11char_traitsIcEENS5_9allocatorIcEEEESC_EEENS0_16format_arg_storeIT_JDpNS5_9remove_cvINS5_16remove_referenceIT0_E4typeEE4typeEEEEDpOSH_ ## -- Begin function _ZN3fmt2v816make_format_argsINS0_20basic_format_contextINS0_8appenderEcEEJRNSt3__112basic_stringIcNS5_11char_traitsIcEENS5_9allocatorIcEEEESC_EEENS0_16format_arg_storeIT_JDpNS5_9remove_cvINS5_16remove_referenceIT0_E4typeEE4typeEEEEDpOSH_
	.weak_definition	__ZN3fmt2v816make_format_argsINS0_20basic_format_contextINS0_8appenderEcEEJRNSt3__112basic_stringIcNS5_11char_traitsIcEENS5_9allocatorIcEEEESC_EEENS0_16format_arg_storeIT_JDpNS5_9remove_cvINS5_16remove_referenceIT0_E4typeEE4typeEEEEDpOSH_
	.p2align	4, 0x90
__ZN3fmt2v816make_format_argsINS0_20basic_format_contextINS0_8appenderEcEEJRNSt3__112basic_stringIcNS5_11char_traitsIcEENS5_9allocatorIcEEEESC_EEENS0_16format_arg_storeIT_JDpNS5_9remove_cvINS5_16remove_referenceIT0_E4typeEE4typeEEEEDpOSH_: ## @_ZN3fmt2v816make_format_argsINS0_20basic_format_contextINS0_8appenderEcEEJRNSt3__112basic_stringIcNS5_11char_traitsIcEENS5_9allocatorIcEEEESC_EEENS0_16format_arg_storeIT_JDpNS5_9remove_cvINS5_16remove_referenceIT0_E4typeEE4typeEEEEDpOSH_
Lfunc_begin14:
	.loc	25 1872 0 is_stmt 1             ## /usr/local/include/fmt/core.h:1872:0
	.cfi_startproc
## %bb.0:
	pushq	%rbp
	.cfi_def_cfa_offset 16
	.cfi_offset %rbp, -16
	movq	%rsp, %rbp
	.cfi_def_cfa_register %rbp
	subq	$592, %rsp                      ## imm = 0x250
	movq	%rdi, -592(%rbp)                ## 8-byte Spill
	movq	%rdi, -528(%rbp)                ## 8-byte Spill
	movq	%rsi, -512(%rbp)
	movq	%rdx, -520(%rbp)
Ltmp82:
	.loc	25 1873 30 prologue_end         ## /usr/local/include/fmt/core.h:1873:30
	movq	-512(%rbp), %rdi
	.loc	25 1873 11 is_stmt 0            ## /usr/local/include/fmt/core.h:1873:11
	callq	__ZNSt3__1L7forwardIRNS_12basic_stringIcNS_11char_traitsIcEENS_9allocatorIcEEEEEEOT_RNS_16remove_referenceIS8_E4typeE
	movq	%rax, -584(%rbp)                ## 8-byte Spill
	.loc	25 1873 30                      ## /usr/local/include/fmt/core.h:1873:30
	movq	-520(%rbp), %rdi
	.loc	25 1873 11                      ## /usr/local/include/fmt/core.h:1873:11
	callq	__ZNSt3__1L7forwardIRNS_12basic_stringIcNS_11char_traitsIcEENS_9allocatorIcEEEEEEOT_RNS_16remove_referenceIS8_E4typeE
	movq	-592(%rbp), %rdi                ## 8-byte Reload
	movq	-584(%rbp), %rcx                ## 8-byte Reload
	movq	%rdi, -488(%rbp)
	movq	%rcx, -496(%rbp)
	movq	%rax, -504(%rbp)
	movq	-488(%rbp), %rdx
Ltmp83:
	.loc	25 1857 40 is_stmt 1            ## /usr/local/include/fmt/core.h:1857:40
	movq	-496(%rbp), %rcx
	movq	-504(%rbp), %rax
	movq	%rdx, -424(%rbp)
	movq	%rcx, -432(%rbp)
	movq	%rax, -440(%rbp)
	movq	-424(%rbp), %rax
	movq	%rax, -544(%rbp)                ## 8-byte Spill
	movq	%rax, -536(%rbp)                ## 8-byte Spill
Ltmp84:
	.loc	25 1857 29 is_stmt 0            ## /usr/local/include/fmt/core.h:1857:29
	movq	-432(%rbp), %rdi
	.loc	25 1857 13                      ## /usr/local/include/fmt/core.h:1857:13
	callq	__ZNSt3__1L7forwardIRNS_12basic_stringIcNS_11char_traitsIcEENS_9allocatorIcEEEEEEOT_RNS_16remove_referenceIS8_E4typeE
	movq	%rax, -360(%rbp)
Ltmp85:
	.loc	25 1707 63 is_stmt 1            ## /usr/local/include/fmt/core.h:1707:63
	movq	-360(%rbp), %rdi
	.loc	25 1707 47 is_stmt 0            ## /usr/local/include/fmt/core.h:1707:47
	callq	__ZNSt3__1L7forwardIRNS_12basic_stringIcNS_11char_traitsIcEENS_9allocatorIcEEEEEEOT_RNS_16remove_referenceIS8_E4typeE
	leaq	-392(%rbp), %rcx
	movq	%rcx, -328(%rbp)
	movq	%rax, -336(%rbp)
Ltmp86:
	.loc	25 1358 27 is_stmt 1            ## /usr/local/include/fmt/core.h:1358:27
	movq	-336(%rbp), %rdi
	.loc	25 1358 12 is_stmt 0            ## /usr/local/include/fmt/core.h:1358:12
	callq	__ZN3fmt2v814to_string_viewIcNSt3__111char_traitsIcEENS2_9allocatorIcEEEENS0_17basic_string_viewIT_EERKNS2_12basic_stringIS8_T0_T1_EE
	movq	%rax, -320(%rbp)
	movq	%rdx, -312(%rbp)
	.loc	25 1358 5                       ## /usr/local/include/fmt/core.h:1358:5
	movq	-320(%rbp), %rcx
	movq	-312(%rbp), %rax
Ltmp87:
	.loc	25 1707 43 is_stmt 1            ## /usr/local/include/fmt/core.h:1707:43
	movq	%rcx, -384(%rbp)
	movq	%rax, -376(%rbp)
	leaq	-384(%rbp), %rax
	.loc	25 1707 15 is_stmt 0            ## /usr/local/include/fmt/core.h:1707:15
	movq	%rax, -368(%rbp)
	.loc	25 1709 18 is_stmt 1            ## /usr/local/include/fmt/core.h:1709:18
	movb	$1, -393(%rbp)
	.loc	25 1713 18                      ## /usr/local/include/fmt/core.h:1713:18
	movb	$1, -394(%rbp)
	.loc	25 1721 18                      ## /usr/local/include/fmt/core.h:1721:18
	movb	$1, -395(%rbp)
	.loc	25 1726 18                      ## /usr/local/include/fmt/core.h:1726:18
	movb	$1, -396(%rbp)
	.loc	25 1732 11                      ## /usr/local/include/fmt/core.h:1732:11
	movq	-368(%rbp), %rax
	movups	(%rax), %xmm0
	movaps	%xmm0, -416(%rbp)
	.loc	25 1732 10 is_stmt 0            ## /usr/local/include/fmt/core.h:1732:10
	movq	-416(%rbp), %rcx
	movq	-408(%rbp), %rax
	movq	%rcx, -296(%rbp)
	movq	%rax, -288(%rbp)
	leaq	-352(%rbp), %rax
	movq	%rax, -304(%rbp)
	movq	-304(%rbp), %rax
Ltmp88:
	.loc	25 1247 91 is_stmt 1            ## /usr/local/include/fmt/core.h:1247:91
	movq	-296(%rbp), %rdx
	movq	-288(%rbp), %rcx
	movq	%rdx, -272(%rbp)
	movq	%rcx, -264(%rbp)
	movq	%rax, -280(%rbp)
	movq	-280(%rbp), %rax
	movq	%rax, -568(%rbp)                ## 8-byte Spill
	leaq	-272(%rbp), %rdi
	movq	%rdi, -576(%rbp)                ## 8-byte Spill
Ltmp89:
	.loc	25 1248 23                      ## /usr/local/include/fmt/core.h:1248:23
	callq	__ZNK3fmt2v817basic_string_viewIcE4dataEv
	movq	-576(%rbp), %rdi                ## 8-byte Reload
	movq	%rax, %rcx
	movq	-568(%rbp), %rax                ## 8-byte Reload
	.loc	25 1248 17 is_stmt 0            ## /usr/local/include/fmt/core.h:1248:17
	movq	%rcx, (%rax)
	.loc	25 1249 23 is_stmt 1            ## /usr/local/include/fmt/core.h:1249:23
	callq	__ZNK3fmt2v817basic_string_viewIcE4sizeEv
	movq	%rax, %rcx
	movq	-568(%rbp), %rax                ## 8-byte Reload
	.loc	25 1249 17 is_stmt 0            ## /usr/local/include/fmt/core.h:1249:17
	movq	%rcx, 8(%rax)
Ltmp90:
	.loc	25 1732 3 is_stmt 1             ## /usr/local/include/fmt/core.h:1732:3
	movq	-352(%rbp), %rcx
	movq	-344(%rbp), %rax
Ltmp91:
	.loc	25 1854 15                      ## /usr/local/include/fmt/core.h:1854:15
	movq	%rcx, -464(%rbp)
	movq	%rax, -456(%rbp)
	.loc	25 1857 29                      ## /usr/local/include/fmt/core.h:1857:29
	movq	-440(%rbp), %rdi
	.loc	25 1857 13 is_stmt 0            ## /usr/local/include/fmt/core.h:1857:13
	callq	__ZNSt3__1L7forwardIRNS_12basic_stringIcNS_11char_traitsIcEENS_9allocatorIcEEEEEEOT_RNS_16remove_referenceIS8_E4typeE
	movq	%rax, -200(%rbp)
Ltmp92:
	.loc	25 1707 63 is_stmt 1            ## /usr/local/include/fmt/core.h:1707:63
	movq	-200(%rbp), %rdi
	.loc	25 1707 47 is_stmt 0            ## /usr/local/include/fmt/core.h:1707:47
	callq	__ZNSt3__1L7forwardIRNS_12basic_stringIcNS_11char_traitsIcEENS_9allocatorIcEEEEEEOT_RNS_16remove_referenceIS8_E4typeE
	leaq	-232(%rbp), %rcx
	movq	%rcx, -160(%rbp)
	movq	%rax, -168(%rbp)
Ltmp93:
	.loc	25 1358 27 is_stmt 1            ## /usr/local/include/fmt/core.h:1358:27
	movq	-168(%rbp), %rdi
	.loc	25 1358 12 is_stmt 0            ## /usr/local/include/fmt/core.h:1358:12
	callq	__ZN3fmt2v814to_string_viewIcNSt3__111char_traitsIcEENS2_9allocatorIcEEEENS0_17basic_string_viewIT_EERKNS2_12basic_stringIS8_T0_T1_EE
	movq	%rax, -152(%rbp)
	movq	%rdx, -144(%rbp)
	.loc	25 1358 5                       ## /usr/local/include/fmt/core.h:1358:5
	movq	-152(%rbp), %rcx
	movq	-144(%rbp), %rax
Ltmp94:
	.loc	25 1707 43 is_stmt 1            ## /usr/local/include/fmt/core.h:1707:43
	movq	%rcx, -224(%rbp)
	movq	%rax, -216(%rbp)
	leaq	-224(%rbp), %rax
	.loc	25 1707 15 is_stmt 0            ## /usr/local/include/fmt/core.h:1707:15
	movq	%rax, -208(%rbp)
	.loc	25 1709 18 is_stmt 1            ## /usr/local/include/fmt/core.h:1709:18
	movb	$1, -233(%rbp)
	.loc	25 1713 18                      ## /usr/local/include/fmt/core.h:1713:18
	movb	$1, -234(%rbp)
	.loc	25 1721 18                      ## /usr/local/include/fmt/core.h:1721:18
	movb	$1, -235(%rbp)
	.loc	25 1726 18                      ## /usr/local/include/fmt/core.h:1726:18
	movb	$1, -236(%rbp)
	.loc	25 1732 11                      ## /usr/local/include/fmt/core.h:1732:11
	movq	-208(%rbp), %rax
	movups	(%rax), %xmm0
	movaps	%xmm0, -256(%rbp)
	.loc	25 1732 10 is_stmt 0            ## /usr/local/include/fmt/core.h:1732:10
	movq	-256(%rbp), %rcx
	movq	-248(%rbp), %rax
	movq	%rcx, -128(%rbp)
	movq	%rax, -120(%rbp)
	leaq	-192(%rbp), %rax
	movq	%rax, -136(%rbp)
	movq	-136(%rbp), %rax
Ltmp95:
	.loc	25 1247 91 is_stmt 1            ## /usr/local/include/fmt/core.h:1247:91
	movq	-128(%rbp), %rdx
	movq	-120(%rbp), %rcx
	movq	%rdx, -104(%rbp)
	movq	%rcx, -96(%rbp)
	movq	%rax, -112(%rbp)
	movq	-112(%rbp), %rax
	movq	%rax, -552(%rbp)                ## 8-byte Spill
	leaq	-104(%rbp), %rdi
	movq	%rdi, -560(%rbp)                ## 8-byte Spill
Ltmp96:
	.loc	25 1248 23                      ## /usr/local/include/fmt/core.h:1248:23
	callq	__ZNK3fmt2v817basic_string_viewIcE4dataEv
	movq	-560(%rbp), %rdi                ## 8-byte Reload
	movq	%rax, %rcx
	movq	-552(%rbp), %rax                ## 8-byte Reload
	.loc	25 1248 17 is_stmt 0            ## /usr/local/include/fmt/core.h:1248:17
	movq	%rcx, (%rax)
	.loc	25 1249 23 is_stmt 1            ## /usr/local/include/fmt/core.h:1249:23
	callq	__ZNK3fmt2v817basic_string_viewIcE4sizeEv
	movq	-552(%rbp), %rsi                ## 8-byte Reload
	movq	-544(%rbp), %rdx                ## 8-byte Reload
	movq	-536(%rbp), %rcx                ## 8-byte Reload
	movq	%rax, %rdi
	movq	-528(%rbp), %rax                ## 8-byte Reload
	.loc	25 1249 17 is_stmt 0            ## /usr/local/include/fmt/core.h:1249:17
	movq	%rdi, 8(%rsi)
Ltmp97:
	.loc	25 1732 3 is_stmt 1             ## /usr/local/include/fmt/core.h:1732:3
	movq	-192(%rbp), %rdi
	movq	-184(%rbp), %rsi
Ltmp98:
	.loc	25 1854 15                      ## /usr/local/include/fmt/core.h:1854:15
	movq	%rdi, -480(%rbp)
	movq	%rsi, -472(%rbp)
	movq	%rdx, -72(%rbp)
	leaq	-464(%rbp), %rdx
	movq	%rdx, -80(%rbp)
	leaq	-480(%rbp), %rdx
	movq	%rdx, -88(%rbp)
	movq	-72(%rbp), %rdi
Ltmp99:
	.loc	25 1082 95                      ## /usr/local/include/fmt/core.h:1082:95
	movq	-80(%rbp), %rsi
	movq	-88(%rbp), %rdx
	movq	%rdi, -48(%rbp)
	movq	%rsi, -56(%rbp)
	movq	%rdx, -64(%rbp)
	movq	-48(%rbp), %rdx
Ltmp100:
	.loc	25 1082 86 is_stmt 0            ## /usr/local/include/fmt/core.h:1082:86
	movq	-56(%rbp), %rsi
	movq	(%rsi), %rdi
	movq	%rdi, (%rdx)
	movq	8(%rsi), %rsi
	movq	%rsi, 8(%rdx)
	movq	-64(%rbp), %rsi
	movq	(%rsi), %rdi
	movq	%rdi, 16(%rdx)
	movq	8(%rsi), %rsi
	movq	%rsi, 24(%rdx)
	movq	%rcx, -40(%rbp)
Ltmp101:
	.loc	25 1858 55 is_stmt 1            ## /usr/local/include/fmt/core.h:1858:55
	movq	-432(%rbp), %rdx
	movq	-440(%rbp), %rcx
	movq	$0, -8(%rbp)
	movl	$0, -12(%rbp)
	movl	$0, -16(%rbp)
	movq	%rdx, -24(%rbp)
	movq	%rcx, -32(%rbp)
Ltmp102:
	.loc	25 1873 3                       ## /usr/local/include/fmt/core.h:1873:3
	addq	$592, %rsp                      ## imm = 0x250
	popq	%rbp
	retq
Ltmp103:
Lfunc_end14:
	.cfi_endproc
                                        ## -- End function
	.p2align	4, 0x90                         ## -- Begin function _ZNSt3__1L7forwardIRNS_12basic_stringIcNS_11char_traitsIcEENS_9allocatorIcEEEEEEOT_RNS_16remove_referenceIS8_E4typeE
__ZNSt3__1L7forwardIRNS_12basic_stringIcNS_11char_traitsIcEENS_9allocatorIcEEEEEEOT_RNS_16remove_referenceIS8_E4typeE: ## @_ZNSt3__1L7forwardIRNS_12basic_stringIcNS_11char_traitsIcEENS_9allocatorIcEEEEEEOT_RNS_16remove_referenceIS8_E4typeE
Lfunc_begin15:
	.file	83 "/Applications/Xcode.app/Contents/Developer/Platforms/MacOSX.platform/Developer/SDKs/MacOSX12.3.sdk/usr/include/c++/v1/__utility" "forward.h"
	.loc	83 27 0                         ## /Applications/Xcode.app/Contents/Developer/Platforms/MacOSX.platform/Developer/SDKs/MacOSX12.3.sdk/usr/include/c++/v1/__utility/forward.h:27:0
	.cfi_startproc
## %bb.0:
	pushq	%rbp
	.cfi_def_cfa_offset 16
	.cfi_offset %rbp, -16
	movq	%rsp, %rbp
	.cfi_def_cfa_register %rbp
	movq	%rdi, -8(%rbp)
Ltmp104:
	.loc	83 28 29 prologue_end           ## /Applications/Xcode.app/Contents/Developer/Platforms/MacOSX.platform/Developer/SDKs/MacOSX12.3.sdk/usr/include/c++/v1/__utility/forward.h:28:29
	movq	-8(%rbp), %rax
	.loc	83 28 3 is_stmt 0               ## /Applications/Xcode.app/Contents/Developer/Platforms/MacOSX.platform/Developer/SDKs/MacOSX12.3.sdk/usr/include/c++/v1/__utility/forward.h:28:3
	popq	%rbp
	retq
Ltmp105:
Lfunc_end15:
	.cfi_endproc
                                        ## -- End function
	.globl	__ZN3fmt2v814to_string_viewIcNSt3__111char_traitsIcEENS2_9allocatorIcEEEENS0_17basic_string_viewIT_EERKNS2_12basic_stringIS8_T0_T1_EE ## -- Begin function _ZN3fmt2v814to_string_viewIcNSt3__111char_traitsIcEENS2_9allocatorIcEEEENS0_17basic_string_viewIT_EERKNS2_12basic_stringIS8_T0_T1_EE
	.weak_definition	__ZN3fmt2v814to_string_viewIcNSt3__111char_traitsIcEENS2_9allocatorIcEEEENS0_17basic_string_viewIT_EERKNS2_12basic_stringIS8_T0_T1_EE
	.p2align	4, 0x90
__ZN3fmt2v814to_string_viewIcNSt3__111char_traitsIcEENS2_9allocatorIcEEEENS0_17basic_string_viewIT_EERKNS2_12basic_stringIS8_T0_T1_EE: ## @_ZN3fmt2v814to_string_viewIcNSt3__111char_traitsIcEENS2_9allocatorIcEEEENS0_17basic_string_viewIT_EERKNS2_12basic_stringIS8_T0_T1_EE
Lfunc_begin16:
	.loc	25 553 0 is_stmt 1              ## /usr/local/include/fmt/core.h:553:0
	.cfi_startproc
## %bb.0:
	pushq	%rbp
	.cfi_def_cfa_offset 16
	.cfi_offset %rbp, -16
	movq	%rsp, %rbp
	.cfi_def_cfa_register %rbp
	subq	$32, %rsp
	movq	%rdi, -24(%rbp)
Ltmp106:
	.loc	25 554 10 prologue_end          ## /usr/local/include/fmt/core.h:554:10
	movq	-24(%rbp), %rsi
	leaq	-16(%rbp), %rdi
	callq	__ZN3fmt2v817basic_string_viewIcEC1INSt3__111char_traitsIcEENS4_9allocatorIcEEEERKNS4_12basic_stringIcT_T0_EE
	.loc	25 554 3 is_stmt 0              ## /usr/local/include/fmt/core.h:554:3
	movq	-16(%rbp), %rax
	movq	-8(%rbp), %rdx
	addq	$32, %rsp
	popq	%rbp
	retq
Ltmp107:
Lfunc_end16:
	.cfi_endproc
                                        ## -- End function
	.globl	__ZN3fmt2v817basic_string_viewIcEC1INSt3__111char_traitsIcEENS4_9allocatorIcEEEERKNS4_12basic_stringIcT_T0_EE ## -- Begin function _ZN3fmt2v817basic_string_viewIcEC1INSt3__111char_traitsIcEENS4_9allocatorIcEEEERKNS4_12basic_stringIcT_T0_EE
	.weak_def_can_be_hidden	__ZN3fmt2v817basic_string_viewIcEC1INSt3__111char_traitsIcEENS4_9allocatorIcEEEERKNS4_12basic_stringIcT_T0_EE
	.p2align	4, 0x90
__ZN3fmt2v817basic_string_viewIcEC1INSt3__111char_traitsIcEENS4_9allocatorIcEEEERKNS4_12basic_stringIcT_T0_EE: ## @_ZN3fmt2v817basic_string_viewIcEC1INSt3__111char_traitsIcEENS4_9allocatorIcEEEERKNS4_12basic_stringIcT_T0_EE
Lfunc_begin17:
	.loc	25 484 0 is_stmt 1              ## /usr/local/include/fmt/core.h:484:0
	.cfi_startproc
## %bb.0:
	pushq	%rbp
	.cfi_def_cfa_offset 16
	.cfi_offset %rbp, -16
	movq	%rsp, %rbp
	.cfi_def_cfa_register %rbp
	subq	$16, %rsp
	movq	%rdi, -8(%rbp)
	movq	%rsi, -16(%rbp)
	movq	-8(%rbp), %rdi
Ltmp108:
	.loc	25 484 25 prologue_end          ## /usr/local/include/fmt/core.h:484:25
	movq	-16(%rbp), %rsi
	callq	__ZN3fmt2v817basic_string_viewIcEC2INSt3__111char_traitsIcEENS4_9allocatorIcEEEERKNS4_12basic_stringIcT_T0_EE
	.loc	25 484 26 is_stmt 0             ## /usr/local/include/fmt/core.h:484:26
	addq	$16, %rsp
	popq	%rbp
	retq
Ltmp109:
Lfunc_end17:
	.cfi_endproc
                                        ## -- End function
	.globl	__ZN3fmt2v817basic_string_viewIcEC2INSt3__111char_traitsIcEENS4_9allocatorIcEEEERKNS4_12basic_stringIcT_T0_EE ## -- Begin function _ZN3fmt2v817basic_string_viewIcEC2INSt3__111char_traitsIcEENS4_9allocatorIcEEEERKNS4_12basic_stringIcT_T0_EE
	.weak_def_can_be_hidden	__ZN3fmt2v817basic_string_viewIcEC2INSt3__111char_traitsIcEENS4_9allocatorIcEEEERKNS4_12basic_stringIcT_T0_EE
	.p2align	4, 0x90
__ZN3fmt2v817basic_string_viewIcEC2INSt3__111char_traitsIcEENS4_9allocatorIcEEEERKNS4_12basic_stringIcT_T0_EE: ## @_ZN3fmt2v817basic_string_viewIcEC2INSt3__111char_traitsIcEENS4_9allocatorIcEEEERKNS4_12basic_stringIcT_T0_EE
Lfunc_begin18:
	.loc	25 484 0 is_stmt 1              ## /usr/local/include/fmt/core.h:484:0
	.cfi_startproc
## %bb.0:
	pushq	%rbp
	.cfi_def_cfa_offset 16
	.cfi_offset %rbp, -16
	movq	%rsp, %rbp
	.cfi_def_cfa_register %rbp
	subq	$32, %rsp
	movq	%rdi, -8(%rbp)
	movq	%rsi, -16(%rbp)
	movq	-8(%rbp), %rax
	movq	%rax, -24(%rbp)                 ## 8-byte Spill
Ltmp110:
	.loc	25 483 15 prologue_end          ## /usr/local/include/fmt/core.h:483:15
	movq	-16(%rbp), %rdi
	.loc	25 483 17 is_stmt 0             ## /usr/local/include/fmt/core.h:483:17
	callq	__ZNKSt3__112basic_stringIcNS_11char_traitsIcEENS_9allocatorIcEEE4dataEv
	movq	%rax, %rcx
	movq	-24(%rbp), %rax                 ## 8-byte Reload
	.loc	25 483 9                        ## /usr/local/include/fmt/core.h:483:9
	movq	%rcx, (%rax)
	.loc	25 484 15 is_stmt 1             ## /usr/local/include/fmt/core.h:484:15
	movq	-16(%rbp), %rdi
	.loc	25 484 17 is_stmt 0             ## /usr/local/include/fmt/core.h:484:17
	callq	__ZNKSt3__112basic_stringIcNS_11char_traitsIcEENS_9allocatorIcEEE4sizeEv
	movq	%rax, %rcx
	movq	-24(%rbp), %rax                 ## 8-byte Reload
	.loc	25 484 9                        ## /usr/local/include/fmt/core.h:484:9
	movq	%rcx, 8(%rax)
	.loc	25 484 26                       ## /usr/local/include/fmt/core.h:484:26
	addq	$32, %rsp
	popq	%rbp
	retq
Ltmp111:
Lfunc_end18:
	.cfi_endproc
                                        ## -- End function
	.p2align	4, 0x90                         ## -- Begin function _ZNKSt3__112basic_stringIcNS_11char_traitsIcEENS_9allocatorIcEEE4dataEv
__ZNKSt3__112basic_stringIcNS_11char_traitsIcEENS_9allocatorIcEEE4dataEv: ## @_ZNKSt3__112basic_stringIcNS_11char_traitsIcEENS_9allocatorIcEEE4dataEv
Lfunc_begin19:
	.loc	11 1265 0 is_stmt 1             ## /Applications/Xcode.app/Contents/Developer/Platforms/MacOSX.platform/Developer/SDKs/MacOSX12.3.sdk/usr/include/c++/v1/string:1265:0
	.cfi_startproc
## %bb.0:
	pushq	%rbp
	.cfi_def_cfa_offset 16
	.cfi_offset %rbp, -16
	movq	%rsp, %rbp
	.cfi_def_cfa_register %rbp
	subq	$16, %rsp
	movq	%rdi, -8(%rbp)
	movq	-8(%rbp), %rdi
Ltmp112:
	.loc	11 1265 76 prologue_end         ## /Applications/Xcode.app/Contents/Developer/Platforms/MacOSX.platform/Developer/SDKs/MacOSX12.3.sdk/usr/include/c++/v1/string:1265:76
	callq	__ZNKSt3__112basic_stringIcNS_11char_traitsIcEENS_9allocatorIcEEE13__get_pointerEv
	movq	%rax, %rdi
	.loc	11 1265 53 is_stmt 0            ## /Applications/Xcode.app/Contents/Developer/Platforms/MacOSX.platform/Developer/SDKs/MacOSX12.3.sdk/usr/include/c++/v1/string:1265:53
	callq	__ZNSt3__1L12__to_addressIKcEEPT_S3_
	.loc	11 1265 46                      ## /Applications/Xcode.app/Contents/Developer/Platforms/MacOSX.platform/Developer/SDKs/MacOSX12.3.sdk/usr/include/c++/v1/string:1265:46
	addq	$16, %rsp
	popq	%rbp
	retq
Ltmp113:
Lfunc_end19:
	.cfi_endproc
                                        ## -- End function
	.p2align	4, 0x90                         ## -- Begin function _ZNKSt3__112basic_stringIcNS_11char_traitsIcEENS_9allocatorIcEEE4sizeEv
__ZNKSt3__112basic_stringIcNS_11char_traitsIcEENS_9allocatorIcEEE4sizeEv: ## @_ZNKSt3__112basic_stringIcNS_11char_traitsIcEENS_9allocatorIcEEE4sizeEv
Lfunc_begin20:
	.loc	11 978 0 is_stmt 1              ## /Applications/Xcode.app/Contents/Developer/Platforms/MacOSX.platform/Developer/SDKs/MacOSX12.3.sdk/usr/include/c++/v1/string:978:0
	.cfi_startproc
## %bb.0:
	pushq	%rbp
	.cfi_def_cfa_offset 16
	.cfi_offset %rbp, -16
	movq	%rsp, %rbp
	.cfi_def_cfa_register %rbp
	subq	$32, %rsp
	movq	%rdi, -8(%rbp)
	movq	-8(%rbp), %rdi
	movq	%rdi, -16(%rbp)                 ## 8-byte Spill
Ltmp114:
	.loc	11 978 17 prologue_end          ## /Applications/Xcode.app/Contents/Developer/Platforms/MacOSX.platform/Developer/SDKs/MacOSX12.3.sdk/usr/include/c++/v1/string:978:17
	callq	__ZNKSt3__112basic_stringIcNS_11char_traitsIcEENS_9allocatorIcEEE9__is_longEv
	testb	$1, %al
	jne	LBB20_1
	jmp	LBB20_2
LBB20_1:
	.loc	11 0 17 is_stmt 0               ## /Applications/Xcode.app/Contents/Developer/Platforms/MacOSX.platform/Developer/SDKs/MacOSX12.3.sdk/usr/include/c++/v1/string:0:17
	movq	-16(%rbp), %rdi                 ## 8-byte Reload
	.loc	11 978 31                       ## /Applications/Xcode.app/Contents/Developer/Platforms/MacOSX.platform/Developer/SDKs/MacOSX12.3.sdk/usr/include/c++/v1/string:978:31
	callq	__ZNKSt3__112basic_stringIcNS_11char_traitsIcEENS_9allocatorIcEEE15__get_long_sizeEv
	movq	%rax, -24(%rbp)                 ## 8-byte Spill
	.loc	11 978 17                       ## /Applications/Xcode.app/Contents/Developer/Platforms/MacOSX.platform/Developer/SDKs/MacOSX12.3.sdk/usr/include/c++/v1/string:978:17
	jmp	LBB20_3
LBB20_2:
	.loc	11 0 17                         ## /Applications/Xcode.app/Contents/Developer/Platforms/MacOSX.platform/Developer/SDKs/MacOSX12.3.sdk/usr/include/c++/v1/string:0:17
	movq	-16(%rbp), %rdi                 ## 8-byte Reload
	.loc	11 978 51                       ## /Applications/Xcode.app/Contents/Developer/Platforms/MacOSX.platform/Developer/SDKs/MacOSX12.3.sdk/usr/include/c++/v1/string:978:51
	callq	__ZNKSt3__112basic_stringIcNS_11char_traitsIcEENS_9allocatorIcEEE16__get_short_sizeEv
	movq	%rax, -24(%rbp)                 ## 8-byte Spill
LBB20_3:
	.loc	11 0 51                         ## /Applications/Xcode.app/Contents/Developer/Platforms/MacOSX.platform/Developer/SDKs/MacOSX12.3.sdk/usr/include/c++/v1/string:0:51
	movq	-24(%rbp), %rax                 ## 8-byte Reload
	.loc	11 978 10                       ## /Applications/Xcode.app/Contents/Developer/Platforms/MacOSX.platform/Developer/SDKs/MacOSX12.3.sdk/usr/include/c++/v1/string:978:10
	addq	$32, %rsp
	popq	%rbp
	retq
Ltmp115:
Lfunc_end20:
	.cfi_endproc
                                        ## -- End function
	.p2align	4, 0x90                         ## -- Begin function _ZNSt3__1L12__to_addressIKcEEPT_S3_
__ZNSt3__1L12__to_addressIKcEEPT_S3_:   ## @_ZNSt3__1L12__to_addressIKcEEPT_S3_
Lfunc_begin21:
	.loc	19 173 0 is_stmt 1              ## /Applications/Xcode.app/Contents/Developer/Platforms/MacOSX.platform/Developer/SDKs/MacOSX12.3.sdk/usr/include/c++/v1/__memory/pointer_traits.h:173:0
	.cfi_startproc
## %bb.0:
	pushq	%rbp
	.cfi_def_cfa_offset 16
	.cfi_offset %rbp, -16
	movq	%rsp, %rbp
	.cfi_def_cfa_register %rbp
	movq	%rdi, -8(%rbp)
Ltmp116:
	.loc	19 175 12 prologue_end          ## /Applications/Xcode.app/Contents/Developer/Platforms/MacOSX.platform/Developer/SDKs/MacOSX12.3.sdk/usr/include/c++/v1/__memory/pointer_traits.h:175:12
	movq	-8(%rbp), %rax
	.loc	19 175 5 is_stmt 0              ## /Applications/Xcode.app/Contents/Developer/Platforms/MacOSX.platform/Developer/SDKs/MacOSX12.3.sdk/usr/include/c++/v1/__memory/pointer_traits.h:175:5
	popq	%rbp
	retq
Ltmp117:
Lfunc_end21:
	.cfi_endproc
                                        ## -- End function
	.p2align	4, 0x90                         ## -- Begin function _ZNKSt3__112basic_stringIcNS_11char_traitsIcEENS_9allocatorIcEEE13__get_pointerEv
__ZNKSt3__112basic_stringIcNS_11char_traitsIcEENS_9allocatorIcEEE13__get_pointerEv: ## @_ZNKSt3__112basic_stringIcNS_11char_traitsIcEENS_9allocatorIcEEE13__get_pointerEv
Lfunc_begin22:
	.loc	11 1553 0 is_stmt 1             ## /Applications/Xcode.app/Contents/Developer/Platforms/MacOSX.platform/Developer/SDKs/MacOSX12.3.sdk/usr/include/c++/v1/string:1553:0
	.cfi_startproc
## %bb.0:
	pushq	%rbp
	.cfi_def_cfa_offset 16
	.cfi_offset %rbp, -16
	movq	%rsp, %rbp
	.cfi_def_cfa_register %rbp
	subq	$32, %rsp
	movq	%rdi, -8(%rbp)
	movq	-8(%rbp), %rdi
	movq	%rdi, -16(%rbp)                 ## 8-byte Spill
Ltmp118:
	.loc	11 1553 17 prologue_end         ## /Applications/Xcode.app/Contents/Developer/Platforms/MacOSX.platform/Developer/SDKs/MacOSX12.3.sdk/usr/include/c++/v1/string:1553:17
	callq	__ZNKSt3__112basic_stringIcNS_11char_traitsIcEENS_9allocatorIcEEE9__is_longEv
	testb	$1, %al
	jne	LBB22_1
	jmp	LBB22_2
LBB22_1:
	.loc	11 0 17 is_stmt 0               ## /Applications/Xcode.app/Contents/Developer/Platforms/MacOSX.platform/Developer/SDKs/MacOSX12.3.sdk/usr/include/c++/v1/string:0:17
	movq	-16(%rbp), %rdi                 ## 8-byte Reload
	.loc	11 1553 31                      ## /Applications/Xcode.app/Contents/Developer/Platforms/MacOSX.platform/Developer/SDKs/MacOSX12.3.sdk/usr/include/c++/v1/string:1553:31
	callq	__ZNKSt3__112basic_stringIcNS_11char_traitsIcEENS_9allocatorIcEEE18__get_long_pointerEv
	movq	%rax, -24(%rbp)                 ## 8-byte Spill
	.loc	11 1553 17                      ## /Applications/Xcode.app/Contents/Developer/Platforms/MacOSX.platform/Developer/SDKs/MacOSX12.3.sdk/usr/include/c++/v1/string:1553:17
	jmp	LBB22_3
LBB22_2:
	.loc	11 0 17                         ## /Applications/Xcode.app/Contents/Developer/Platforms/MacOSX.platform/Developer/SDKs/MacOSX12.3.sdk/usr/include/c++/v1/string:0:17
	movq	-16(%rbp), %rdi                 ## 8-byte Reload
	.loc	11 1553 54                      ## /Applications/Xcode.app/Contents/Developer/Platforms/MacOSX.platform/Developer/SDKs/MacOSX12.3.sdk/usr/include/c++/v1/string:1553:54
	callq	__ZNKSt3__112basic_stringIcNS_11char_traitsIcEENS_9allocatorIcEEE19__get_short_pointerEv
	movq	%rax, -24(%rbp)                 ## 8-byte Spill
LBB22_3:
	.loc	11 0 54                         ## /Applications/Xcode.app/Contents/Developer/Platforms/MacOSX.platform/Developer/SDKs/MacOSX12.3.sdk/usr/include/c++/v1/string:0:54
	movq	-24(%rbp), %rax                 ## 8-byte Reload
	.loc	11 1553 10                      ## /Applications/Xcode.app/Contents/Developer/Platforms/MacOSX.platform/Developer/SDKs/MacOSX12.3.sdk/usr/include/c++/v1/string:1553:10
	addq	$32, %rsp
	popq	%rbp
	retq
Ltmp119:
Lfunc_end22:
	.cfi_endproc
                                        ## -- End function
	.p2align	4, 0x90                         ## -- Begin function _ZNKSt3__112basic_stringIcNS_11char_traitsIcEENS_9allocatorIcEEE9__is_longEv
__ZNKSt3__112basic_stringIcNS_11char_traitsIcEENS_9allocatorIcEEE9__is_longEv: ## @_ZNKSt3__112basic_stringIcNS_11char_traitsIcEENS_9allocatorIcEEE9__is_longEv
Lfunc_begin23:
	.loc	11 1459 0 is_stmt 1             ## /Applications/Xcode.app/Contents/Developer/Platforms/MacOSX.platform/Developer/SDKs/MacOSX12.3.sdk/usr/include/c++/v1/string:1459:0
	.cfi_startproc
## %bb.0:
	pushq	%rbp
	.cfi_def_cfa_offset 16
	.cfi_offset %rbp, -16
	movq	%rsp, %rbp
	.cfi_def_cfa_register %rbp
	subq	$16, %rsp
	movq	%rdi, -8(%rbp)
	movq	-8(%rbp), %rdi
Ltmp120:
	.loc	11 1459 27 prologue_end         ## /Applications/Xcode.app/Contents/Developer/Platforms/MacOSX.platform/Developer/SDKs/MacOSX12.3.sdk/usr/include/c++/v1/string:1459:27
	callq	__ZNKSt3__117__compressed_pairINS_12basic_stringIcNS_11char_traitsIcEENS_9allocatorIcEEE5__repES5_E5firstEv
	.loc	11 1459 22 is_stmt 0            ## /Applications/Xcode.app/Contents/Developer/Platforms/MacOSX.platform/Developer/SDKs/MacOSX12.3.sdk/usr/include/c++/v1/string:1459:22
	movzbl	(%rax), %eax
                                        ## kill: def $rax killed $eax
	.loc	11 1459 47                      ## /Applications/Xcode.app/Contents/Developer/Platforms/MacOSX.platform/Developer/SDKs/MacOSX12.3.sdk/usr/include/c++/v1/string:1459:47
	andq	$1, %rax
	.loc	11 1459 22                      ## /Applications/Xcode.app/Contents/Developer/Platforms/MacOSX.platform/Developer/SDKs/MacOSX12.3.sdk/usr/include/c++/v1/string:1459:22
	cmpq	$0, %rax
	setne	%al
	.loc	11 1459 10                      ## /Applications/Xcode.app/Contents/Developer/Platforms/MacOSX.platform/Developer/SDKs/MacOSX12.3.sdk/usr/include/c++/v1/string:1459:10
	andb	$1, %al
	movzbl	%al, %eax
	addq	$16, %rsp
	popq	%rbp
	retq
Ltmp121:
Lfunc_end23:
	.cfi_endproc
                                        ## -- End function
	.p2align	4, 0x90                         ## -- Begin function _ZNKSt3__112basic_stringIcNS_11char_traitsIcEENS_9allocatorIcEEE18__get_long_pointerEv
__ZNKSt3__112basic_stringIcNS_11char_traitsIcEENS_9allocatorIcEEE18__get_long_pointerEv: ## @_ZNKSt3__112basic_stringIcNS_11char_traitsIcEENS_9allocatorIcEEE18__get_long_pointerEv
Lfunc_begin24:
	.loc	11 1541 0 is_stmt 1             ## /Applications/Xcode.app/Contents/Developer/Platforms/MacOSX.platform/Developer/SDKs/MacOSX12.3.sdk/usr/include/c++/v1/string:1541:0
	.cfi_startproc
## %bb.0:
	pushq	%rbp
	.cfi_def_cfa_offset 16
	.cfi_offset %rbp, -16
	movq	%rsp, %rbp
	.cfi_def_cfa_register %rbp
	subq	$16, %rsp
	movq	%rdi, -8(%rbp)
	movq	-8(%rbp), %rdi
Ltmp122:
	.loc	11 1541 22 prologue_end         ## /Applications/Xcode.app/Contents/Developer/Platforms/MacOSX.platform/Developer/SDKs/MacOSX12.3.sdk/usr/include/c++/v1/string:1541:22
	callq	__ZNKSt3__117__compressed_pairINS_12basic_stringIcNS_11char_traitsIcEENS_9allocatorIcEEE5__repES5_E5firstEv
	.loc	11 1541 34 is_stmt 0            ## /Applications/Xcode.app/Contents/Developer/Platforms/MacOSX.platform/Developer/SDKs/MacOSX12.3.sdk/usr/include/c++/v1/string:1541:34
	movq	16(%rax), %rax
	.loc	11 1541 10                      ## /Applications/Xcode.app/Contents/Developer/Platforms/MacOSX.platform/Developer/SDKs/MacOSX12.3.sdk/usr/include/c++/v1/string:1541:10
	addq	$16, %rsp
	popq	%rbp
	retq
Ltmp123:
Lfunc_end24:
	.cfi_endproc
                                        ## -- End function
	.p2align	4, 0x90                         ## -- Begin function _ZNKSt3__112basic_stringIcNS_11char_traitsIcEENS_9allocatorIcEEE19__get_short_pointerEv
__ZNKSt3__112basic_stringIcNS_11char_traitsIcEENS_9allocatorIcEEE19__get_short_pointerEv: ## @_ZNKSt3__112basic_stringIcNS_11char_traitsIcEENS_9allocatorIcEEE19__get_short_pointerEv
Lfunc_begin25:
	.loc	11 1547 0 is_stmt 1             ## /Applications/Xcode.app/Contents/Developer/Platforms/MacOSX.platform/Developer/SDKs/MacOSX12.3.sdk/usr/include/c++/v1/string:1547:0
	.cfi_startproc
## %bb.0:
	pushq	%rbp
	.cfi_def_cfa_offset 16
	.cfi_offset %rbp, -16
	movq	%rsp, %rbp
	.cfi_def_cfa_register %rbp
	subq	$16, %rsp
	movq	%rdi, -8(%rbp)
	movq	-8(%rbp), %rdi
Ltmp124:
	.loc	11 1547 64 prologue_end         ## /Applications/Xcode.app/Contents/Developer/Platforms/MacOSX.platform/Developer/SDKs/MacOSX12.3.sdk/usr/include/c++/v1/string:1547:64
	callq	__ZNKSt3__117__compressed_pairINS_12basic_stringIcNS_11char_traitsIcEENS_9allocatorIcEEE5__repES5_E5firstEv
	movq	%rax, %rdi
	.loc	11 1547 76 is_stmt 0            ## /Applications/Xcode.app/Contents/Developer/Platforms/MacOSX.platform/Developer/SDKs/MacOSX12.3.sdk/usr/include/c++/v1/string:1547:76
	addq	$1, %rdi
	.loc	11 1547 17                      ## /Applications/Xcode.app/Contents/Developer/Platforms/MacOSX.platform/Developer/SDKs/MacOSX12.3.sdk/usr/include/c++/v1/string:1547:17
	callq	__ZNSt3__114pointer_traitsIPKcE10pointer_toERS1_
	.loc	11 1547 10                      ## /Applications/Xcode.app/Contents/Developer/Platforms/MacOSX.platform/Developer/SDKs/MacOSX12.3.sdk/usr/include/c++/v1/string:1547:10
	addq	$16, %rsp
	popq	%rbp
	retq
Ltmp125:
Lfunc_end25:
	.cfi_endproc
                                        ## -- End function
	.p2align	4, 0x90                         ## -- Begin function _ZNKSt3__117__compressed_pairINS_12basic_stringIcNS_11char_traitsIcEENS_9allocatorIcEEE5__repES5_E5firstEv
__ZNKSt3__117__compressed_pairINS_12basic_stringIcNS_11char_traitsIcEENS_9allocatorIcEEE5__repES5_E5firstEv: ## @_ZNKSt3__117__compressed_pairINS_12basic_stringIcNS_11char_traitsIcEENS_9allocatorIcEEE5__repES5_E5firstEv
Lfunc_begin26:
	.loc	13 155 0 is_stmt 1              ## /Applications/Xcode.app/Contents/Developer/Platforms/MacOSX.platform/Developer/SDKs/MacOSX12.3.sdk/usr/include/c++/v1/__memory/compressed_pair.h:155:0
	.cfi_startproc
## %bb.0:
	pushq	%rbp
	.cfi_def_cfa_offset 16
	.cfi_offset %rbp, -16
	movq	%rsp, %rbp
	.cfi_def_cfa_register %rbp
	subq	$16, %rsp
	movq	%rdi, -8(%rbp)
	movq	-8(%rbp), %rdi
Ltmp126:
	.loc	13 156 46 prologue_end          ## /Applications/Xcode.app/Contents/Developer/Platforms/MacOSX.platform/Developer/SDKs/MacOSX12.3.sdk/usr/include/c++/v1/__memory/compressed_pair.h:156:46
	callq	__ZNKSt3__122__compressed_pair_elemINS_12basic_stringIcNS_11char_traitsIcEENS_9allocatorIcEEE5__repELi0ELb0EE5__getEv
	.loc	13 156 5 is_stmt 0              ## /Applications/Xcode.app/Contents/Developer/Platforms/MacOSX.platform/Developer/SDKs/MacOSX12.3.sdk/usr/include/c++/v1/__memory/compressed_pair.h:156:5
	addq	$16, %rsp
	popq	%rbp
	retq
Ltmp127:
Lfunc_end26:
	.cfi_endproc
                                        ## -- End function
	.p2align	4, 0x90                         ## -- Begin function _ZNKSt3__122__compressed_pair_elemINS_12basic_stringIcNS_11char_traitsIcEENS_9allocatorIcEEE5__repELi0ELb0EE5__getEv
__ZNKSt3__122__compressed_pair_elemINS_12basic_stringIcNS_11char_traitsIcEENS_9allocatorIcEEE5__repELi0ELb0EE5__getEv: ## @_ZNKSt3__122__compressed_pair_elemINS_12basic_stringIcNS_11char_traitsIcEENS_9allocatorIcEEE5__repELi0ELb0EE5__getEv
Lfunc_begin27:
	.loc	13 67 0 is_stmt 1               ## /Applications/Xcode.app/Contents/Developer/Platforms/MacOSX.platform/Developer/SDKs/MacOSX12.3.sdk/usr/include/c++/v1/__memory/compressed_pair.h:67:0
	.cfi_startproc
## %bb.0:
	pushq	%rbp
	.cfi_def_cfa_offset 16
	.cfi_offset %rbp, -16
	movq	%rsp, %rbp
	.cfi_def_cfa_register %rbp
	movq	%rdi, -8(%rbp)
	movq	-8(%rbp), %rax
Ltmp128:
	.loc	13 67 44 prologue_end           ## /Applications/Xcode.app/Contents/Developer/Platforms/MacOSX.platform/Developer/SDKs/MacOSX12.3.sdk/usr/include/c++/v1/__memory/compressed_pair.h:67:44
	popq	%rbp
	retq
Ltmp129:
Lfunc_end27:
	.cfi_endproc
                                        ## -- End function
	.p2align	4, 0x90                         ## -- Begin function _ZNSt3__114pointer_traitsIPKcE10pointer_toERS1_
__ZNSt3__114pointer_traitsIPKcE10pointer_toERS1_: ## @_ZNSt3__114pointer_traitsIPKcE10pointer_toERS1_
Lfunc_begin28:
	.loc	19 154 0                        ## /Applications/Xcode.app/Contents/Developer/Platforms/MacOSX.platform/Developer/SDKs/MacOSX12.3.sdk/usr/include/c++/v1/__memory/pointer_traits.h:154:0
	.cfi_startproc
## %bb.0:
	pushq	%rbp
	.cfi_def_cfa_offset 16
	.cfi_offset %rbp, -16
	movq	%rsp, %rbp
	.cfi_def_cfa_register %rbp
	subq	$16, %rsp
	movq	%rdi, -8(%rbp)
Ltmp130:
	.loc	19 154 37 prologue_end          ## /Applications/Xcode.app/Contents/Developer/Platforms/MacOSX.platform/Developer/SDKs/MacOSX12.3.sdk/usr/include/c++/v1/__memory/pointer_traits.h:154:37
	movq	-8(%rbp), %rdi
	.loc	19 154 17 is_stmt 0             ## /Applications/Xcode.app/Contents/Developer/Platforms/MacOSX.platform/Developer/SDKs/MacOSX12.3.sdk/usr/include/c++/v1/__memory/pointer_traits.h:154:17
	callq	__ZNSt3__1L9addressofIKcEEPT_RS2_
	.loc	19 154 10                       ## /Applications/Xcode.app/Contents/Developer/Platforms/MacOSX.platform/Developer/SDKs/MacOSX12.3.sdk/usr/include/c++/v1/__memory/pointer_traits.h:154:10
	addq	$16, %rsp
	popq	%rbp
	retq
Ltmp131:
Lfunc_end28:
	.cfi_endproc
                                        ## -- End function
	.p2align	4, 0x90                         ## -- Begin function _ZNSt3__1L9addressofIKcEEPT_RS2_
__ZNSt3__1L9addressofIKcEEPT_RS2_:      ## @_ZNSt3__1L9addressofIKcEEPT_RS2_
Lfunc_begin29:
	.file	84 "/Applications/Xcode.app/Contents/Developer/Platforms/MacOSX.platform/Developer/SDKs/MacOSX12.3.sdk/usr/include/c++/v1/__memory" "addressof.h"
	.loc	84 31 0 is_stmt 1               ## /Applications/Xcode.app/Contents/Developer/Platforms/MacOSX.platform/Developer/SDKs/MacOSX12.3.sdk/usr/include/c++/v1/__memory/addressof.h:31:0
	.cfi_startproc
## %bb.0:
	pushq	%rbp
	.cfi_def_cfa_offset 16
	.cfi_offset %rbp, -16
	movq	%rsp, %rbp
	.cfi_def_cfa_register %rbp
	movq	%rdi, -8(%rbp)
Ltmp132:
	.loc	84 32 32 prologue_end           ## /Applications/Xcode.app/Contents/Developer/Platforms/MacOSX.platform/Developer/SDKs/MacOSX12.3.sdk/usr/include/c++/v1/__memory/addressof.h:32:32
	movq	-8(%rbp), %rax
	.loc	84 32 5 is_stmt 0               ## /Applications/Xcode.app/Contents/Developer/Platforms/MacOSX.platform/Developer/SDKs/MacOSX12.3.sdk/usr/include/c++/v1/__memory/addressof.h:32:5
	popq	%rbp
	retq
Ltmp133:
Lfunc_end29:
	.cfi_endproc
                                        ## -- End function
	.p2align	4, 0x90                         ## -- Begin function _ZNKSt3__112basic_stringIcNS_11char_traitsIcEENS_9allocatorIcEEE15__get_long_sizeEv
__ZNKSt3__112basic_stringIcNS_11char_traitsIcEENS_9allocatorIcEEE15__get_long_sizeEv: ## @_ZNKSt3__112basic_stringIcNS_11char_traitsIcEENS_9allocatorIcEEE15__get_long_sizeEv
Lfunc_begin30:
	.loc	11 1521 0 is_stmt 1             ## /Applications/Xcode.app/Contents/Developer/Platforms/MacOSX.platform/Developer/SDKs/MacOSX12.3.sdk/usr/include/c++/v1/string:1521:0
	.cfi_startproc
## %bb.0:
	pushq	%rbp
	.cfi_def_cfa_offset 16
	.cfi_offset %rbp, -16
	movq	%rsp, %rbp
	.cfi_def_cfa_register %rbp
	subq	$16, %rsp
	movq	%rdi, -8(%rbp)
	movq	-8(%rbp), %rdi
Ltmp134:
	.loc	11 1521 22 prologue_end         ## /Applications/Xcode.app/Contents/Developer/Platforms/MacOSX.platform/Developer/SDKs/MacOSX12.3.sdk/usr/include/c++/v1/string:1521:22
	callq	__ZNKSt3__117__compressed_pairINS_12basic_stringIcNS_11char_traitsIcEENS_9allocatorIcEEE5__repES5_E5firstEv
	.loc	11 1521 34 is_stmt 0            ## /Applications/Xcode.app/Contents/Developer/Platforms/MacOSX.platform/Developer/SDKs/MacOSX12.3.sdk/usr/include/c++/v1/string:1521:34
	movq	8(%rax), %rax
	.loc	11 1521 10                      ## /Applications/Xcode.app/Contents/Developer/Platforms/MacOSX.platform/Developer/SDKs/MacOSX12.3.sdk/usr/include/c++/v1/string:1521:10
	addq	$16, %rsp
	popq	%rbp
	retq
Ltmp135:
Lfunc_end30:
	.cfi_endproc
                                        ## -- End function
	.p2align	4, 0x90                         ## -- Begin function _ZNKSt3__112basic_stringIcNS_11char_traitsIcEENS_9allocatorIcEEE16__get_short_sizeEv
__ZNKSt3__112basic_stringIcNS_11char_traitsIcEENS_9allocatorIcEEE16__get_short_sizeEv: ## @_ZNKSt3__112basic_stringIcNS_11char_traitsIcEENS_9allocatorIcEEE16__get_short_sizeEv
Lfunc_begin31:
	.loc	11 1511 0 is_stmt 1             ## /Applications/Xcode.app/Contents/Developer/Platforms/MacOSX.platform/Developer/SDKs/MacOSX12.3.sdk/usr/include/c++/v1/string:1511:0
	.cfi_startproc
## %bb.0:
	pushq	%rbp
	.cfi_def_cfa_offset 16
	.cfi_offset %rbp, -16
	movq	%rsp, %rbp
	.cfi_def_cfa_register %rbp
	subq	$16, %rsp
	movq	%rdi, -8(%rbp)
	movq	-8(%rbp), %rdi
Ltmp136:
	.loc	11 1511 22 prologue_end         ## /Applications/Xcode.app/Contents/Developer/Platforms/MacOSX.platform/Developer/SDKs/MacOSX12.3.sdk/usr/include/c++/v1/string:1511:22
	callq	__ZNKSt3__117__compressed_pairINS_12basic_stringIcNS_11char_traitsIcEENS_9allocatorIcEEE5__repES5_E5firstEv
	.loc	11 1511 17 is_stmt 0            ## /Applications/Xcode.app/Contents/Developer/Platforms/MacOSX.platform/Developer/SDKs/MacOSX12.3.sdk/usr/include/c++/v1/string:1511:17
	movzbl	(%rax), %eax
	.loc	11 1511 42                      ## /Applications/Xcode.app/Contents/Developer/Platforms/MacOSX.platform/Developer/SDKs/MacOSX12.3.sdk/usr/include/c++/v1/string:1511:42
	sarl	$1, %eax
	.loc	11 1511 17                      ## /Applications/Xcode.app/Contents/Developer/Platforms/MacOSX.platform/Developer/SDKs/MacOSX12.3.sdk/usr/include/c++/v1/string:1511:17
	cltq
	.loc	11 1511 10                      ## /Applications/Xcode.app/Contents/Developer/Platforms/MacOSX.platform/Developer/SDKs/MacOSX12.3.sdk/usr/include/c++/v1/string:1511:10
	addq	$16, %rsp
	popq	%rbp
	retq
Ltmp137:
Lfunc_end31:
	.cfi_endproc
                                        ## -- End function
	.globl	__ZNK3fmt2v817basic_string_viewIcE4dataEv ## -- Begin function _ZNK3fmt2v817basic_string_viewIcE4dataEv
	.weak_definition	__ZNK3fmt2v817basic_string_viewIcE4dataEv
	.p2align	4, 0x90
__ZNK3fmt2v817basic_string_viewIcE4dataEv: ## @_ZNK3fmt2v817basic_string_viewIcE4dataEv
Lfunc_begin32:
	.loc	25 492 0 is_stmt 1              ## /usr/local/include/fmt/core.h:492:0
	.cfi_startproc
## %bb.0:
	pushq	%rbp
	.cfi_def_cfa_offset 16
	.cfi_offset %rbp, -16
	movq	%rsp, %rbp
	.cfi_def_cfa_register %rbp
	movq	%rdi, -8(%rbp)
	movq	-8(%rbp), %rax
Ltmp138:
	.loc	25 492 64 prologue_end          ## /usr/local/include/fmt/core.h:492:64
	movq	(%rax), %rax
	.loc	25 492 57 is_stmt 0             ## /usr/local/include/fmt/core.h:492:57
	popq	%rbp
	retq
Ltmp139:
Lfunc_end32:
	.cfi_endproc
                                        ## -- End function
	.globl	__ZNK3fmt2v817basic_string_viewIcE4sizeEv ## -- Begin function _ZNK3fmt2v817basic_string_viewIcE4sizeEv
	.weak_definition	__ZNK3fmt2v817basic_string_viewIcE4sizeEv
	.p2align	4, 0x90
__ZNK3fmt2v817basic_string_viewIcE4sizeEv: ## @_ZNK3fmt2v817basic_string_viewIcE4sizeEv
Lfunc_begin33:
	.loc	25 495 0 is_stmt 1              ## /usr/local/include/fmt/core.h:495:0
	.cfi_startproc
## %bb.0:
	pushq	%rbp
	.cfi_def_cfa_offset 16
	.cfi_offset %rbp, -16
	movq	%rsp, %rbp
	.cfi_def_cfa_register %rbp
	movq	%rdi, -8(%rbp)
	movq	-8(%rbp), %rax
Ltmp140:
	.loc	25 495 59 prologue_end          ## /usr/local/include/fmt/core.h:495:59
	movq	8(%rax), %rax
	.loc	25 495 52 is_stmt 0             ## /usr/local/include/fmt/core.h:495:52
	popq	%rbp
	retq
Ltmp141:
Lfunc_end33:
	.cfi_endproc
                                        ## -- End function
	.section	__TEXT,__cstring,cstring_literals
L_.str:                                 ## @.str
	.asciz	"{} <--> {}\n"
